; ModuleID = 'option.ee63076a-cgu.0'
source_filename = "option.ee63076a-cgu.0"
target datalayout = "e-m:e-pf200:128:128:128:64-i8:8:32-i16:16:32-i64:64-i128:128-n32:64-S128-A200-P200-G200"
target triple = "aarch64-unknown-freebsd"

%"std::option::Option<i8>::Some" = type { [1 x i8], i8 }
%"std::option::Option<i32>::Some" = type { [1 x i32], i32 }
%"unwind::libunwind::_Unwind_Exception" = type { i64, [1 x i64], void (i32, %"unwind::libunwind::_Unwind_Exception" addrspace(200)*) addrspace(200)*, [2 x i8 addrspace(200)*] }
%"unwind::libunwind::_Unwind_Context" = type { [0 x i8] }

@vtable.0 = private unnamed_addr addrspace(200) constant <{ i8 addrspace(200)*, [32 x i8], i8 addrspace(200)*, i8 addrspace(200)*, i8 addrspace(200)*, [0 x i8] }> <{ i8 addrspace(200)* bitcast (void (i64 addrspace(200)* addrspace(200)*) addrspace(200)* @"_ZN4core3ptr85drop_in_place$LT$std..rt..lang_start$LT$$LP$$RP$$GT$..$u7b$$u7b$closure$u7d$$u7d$$GT$17hf972d9b2453cc0cdE" to i8 addrspace(200)*), [32 x i8] c"\10\00\00\00\00\00\00\00\00\00\00\00\00\00\00\00\10\00\00\00\00\00\00\00\00\00\00\00\00\00\00\00", i8 addrspace(200)* bitcast (i32 (i64 addrspace(200)* addrspace(200)*) addrspace(200)* @"_ZN4core3ops8function6FnOnce40call_once$u7b$$u7b$vtable.shim$u7d$$u7d$17h3ee3bfd61ea93a21E" to i8 addrspace(200)*), i8 addrspace(200)* bitcast (i32 (i64 addrspace(200)* addrspace(200)*) addrspace(200)* @"_ZN3std2rt10lang_start28_$u7b$$u7b$closure$u7d$$u7d$17h74cc04c71243a34eE" to i8 addrspace(200)*), i8 addrspace(200)* bitcast (i32 (i64 addrspace(200)* addrspace(200)*) addrspace(200)* @"_ZN3std2rt10lang_start28_$u7b$$u7b$closure$u7d$$u7d$17h74cc04c71243a34eE" to i8 addrspace(200)*), [0 x i8] zeroinitializer }>, align 16

; std::sys_common::backtrace::__rust_begin_short_backtrace
; Function Attrs: noinline nonlazybind uwtable
define internal void @_ZN3std10sys_common9backtrace28__rust_begin_short_backtrace17hddb8c718703f5444E(void () addrspace(200)* nonnull %f) unnamed_addr addrspace(200) #0 personality i32 (i32, i32, i64, %"unwind::libunwind::_Unwind_Exception" addrspace(200)*, %"unwind::libunwind::_Unwind_Context" addrspace(200)*) addrspace(200)* @rust_eh_personality {
start:
  %0 = alloca { i8 addrspace(200)*, i32 }, align 16, addrspace(200)
; call core::ops::function::FnOnce::call_once
  call void @_ZN4core3ops8function6FnOnce9call_once17he11ed467e3eafa90E(void () addrspace(200)* nonnull %f)
  br label %bb1

bb1:                                              ; preds = %start
; invoke core::hint::black_box
  invoke void @_ZN4core4hint9black_box17h608594853e760038E()
          to label %bb2 unwind label %cleanup

bb2:                                              ; preds = %bb1
  ret void

bb3:                                              ; preds = %cleanup
  br label %bb4

cleanup:                                          ; preds = %bb1
  %1 = landingpad { i8 addrspace(200)*, i32 }
          cleanup
  %2 = extractvalue { i8 addrspace(200)*, i32 } %1, 0
  %3 = extractvalue { i8 addrspace(200)*, i32 } %1, 1
  %4 = getelementptr inbounds { i8 addrspace(200)*, i32 }, { i8 addrspace(200)*, i32 } addrspace(200)* %0, i32 0, i32 0
  store i8 addrspace(200)* %2, i8 addrspace(200)* addrspace(200)* %4, align 16
  %5 = getelementptr inbounds { i8 addrspace(200)*, i32 }, { i8 addrspace(200)*, i32 } addrspace(200)* %0, i32 0, i32 1
  store i32 %3, i32 addrspace(200)* %5, align 16
  br label %bb3

bb4:                                              ; preds = %bb3
  %6 = bitcast { i8 addrspace(200)*, i32 } addrspace(200)* %0 to i8 addrspace(200)* addrspace(200)*
  %7 = load i8 addrspace(200)*, i8 addrspace(200)* addrspace(200)* %6, align 16
  %8 = getelementptr inbounds { i8 addrspace(200)*, i32 }, { i8 addrspace(200)*, i32 } addrspace(200)* %0, i32 0, i32 1
  %9 = load i32, i32 addrspace(200)* %8, align 16
  %10 = insertvalue { i8 addrspace(200)*, i32 } undef, i8 addrspace(200)* %7, 0
  %11 = insertvalue { i8 addrspace(200)*, i32 } %10, i32 %9, 1
  resume { i8 addrspace(200)*, i32 } %11
}

; std::rt::lang_start
; Function Attrs: nonlazybind uwtable
define hidden i64 @_ZN3std2rt10lang_start17haac2f9bab1ecdf26E(void () addrspace(200)* nonnull %main, i64 %argc, i8 addrspace(200)* addrspace(200)* %argv) unnamed_addr addrspace(200) #1 {
start:
  %_8 = alloca i64 addrspace(200)*, align 16, addrspace(200)
  %0 = bitcast i64 addrspace(200)* addrspace(200)* %_8 to void () addrspace(200)* addrspace(200)*
  store void () addrspace(200)* %main, void () addrspace(200)* addrspace(200)* %0, align 16
  %_5.0 = bitcast i64 addrspace(200)* addrspace(200)* %_8 to {} addrspace(200)*
; call std::rt::lang_start_internal
  %_4 = call i64 @_ZN3std2rt19lang_start_internal17ha0fc68d8c5a9181bE({} addrspace(200)* nonnull align 1 %_5.0, [3 x i64] addrspace(200)* align 8 dereferenceable(24) bitcast (<{ i8 addrspace(200)*, [32 x i8], i8 addrspace(200)*, i8 addrspace(200)*, i8 addrspace(200)*, [0 x i8] }> addrspace(200)* @vtable.0 to [3 x i64] addrspace(200)*), i64 %argc, i8 addrspace(200)* addrspace(200)* %argv)
  br label %bb1

bb1:                                              ; preds = %start
; call core::result::Result<T,E>::into_ok
  %1 = call i64 @"_ZN4core6result19Result$LT$T$C$E$GT$7into_ok17h8b3466d9c78b7d39E"(i64 %_4)
  br label %bb2

bb2:                                              ; preds = %bb1
  ret i64 %1
}

; std::rt::lang_start::{{closure}}
; Function Attrs: inlinehint nonlazybind uwtable
define internal i32 @"_ZN3std2rt10lang_start28_$u7b$$u7b$closure$u7d$$u7d$17h74cc04c71243a34eE"(i64 addrspace(200)* addrspace(200)* align 16 dereferenceable(16) %_1) unnamed_addr addrspace(200) #2 {
start:
  %0 = bitcast i64 addrspace(200)* addrspace(200)* %_1 to void () addrspace(200)* addrspace(200)*
  %_3 = load void () addrspace(200)*, void () addrspace(200)* addrspace(200)* %0, align 16, !nonnull !3
; call std::sys_common::backtrace::__rust_begin_short_backtrace
  call void @_ZN3std10sys_common9backtrace28__rust_begin_short_backtrace17hddb8c718703f5444E(void () addrspace(200)* nonnull %_3)
  br label %bb1

bb1:                                              ; preds = %start
; call <() as std::process::Termination>::report
  %1 = call i32 @"_ZN54_$LT$$LP$$RP$$u20$as$u20$std..process..Termination$GT$6report17h72c5094ddc6f7ab9E"()
  br label %bb2

bb2:                                              ; preds = %bb1
  ret i32 %1
}

; std::sys::unix::process::process_common::ExitCode::as_i32
; Function Attrs: inlinehint nonlazybind uwtable
define internal i32 @_ZN3std3sys4unix7process14process_common8ExitCode6as_i3217h0ea2ba53258620eeE(i8 addrspace(200)* align 1 dereferenceable(1) %self) unnamed_addr addrspace(200) #2 {
start:
  %_2 = load i8, i8 addrspace(200)* %self, align 1
  %0 = zext i8 %_2 to i32
  ret i32 %0
}

; core::ops::function::FnOnce::call_once{{vtable.shim}}
; Function Attrs: inlinehint nonlazybind uwtable
define internal i32 @"_ZN4core3ops8function6FnOnce40call_once$u7b$$u7b$vtable.shim$u7d$$u7d$17h3ee3bfd61ea93a21E"(i64 addrspace(200)* addrspace(200)* %_1) unnamed_addr addrspace(200) #2 {
start:
  %_2 = alloca {}, align 1, addrspace(200)
  %0 = load i64 addrspace(200)*, i64 addrspace(200)* addrspace(200)* %_1, align 16, !nonnull !3
; call core::ops::function::FnOnce::call_once
  %1 = call i32 @_ZN4core3ops8function6FnOnce9call_once17hcf62cc0e3e655699E(i64 addrspace(200)* nonnull %0)
  br label %bb1

bb1:                                              ; preds = %start
  ret i32 %1
}

; core::ops::function::FnOnce::call_once
; Function Attrs: inlinehint nonlazybind uwtable
define internal i32 @_ZN4core3ops8function6FnOnce9call_once17hcf62cc0e3e655699E(i64 addrspace(200)* nonnull %0) unnamed_addr addrspace(200) #2 personality i32 (i32, i32, i64, %"unwind::libunwind::_Unwind_Exception" addrspace(200)*, %"unwind::libunwind::_Unwind_Context" addrspace(200)*) addrspace(200)* @rust_eh_personality {
start:
  %1 = alloca { i8 addrspace(200)*, i32 }, align 16, addrspace(200)
  %_2 = alloca {}, align 1, addrspace(200)
  %_1 = alloca i64 addrspace(200)*, align 16, addrspace(200)
  store i64 addrspace(200)* %0, i64 addrspace(200)* addrspace(200)* %_1, align 16
; invoke std::rt::lang_start::{{closure}}
  %2 = invoke i32 @"_ZN3std2rt10lang_start28_$u7b$$u7b$closure$u7d$$u7d$17h74cc04c71243a34eE"(i64 addrspace(200)* addrspace(200)* align 16 dereferenceable(16) %_1)
          to label %bb1 unwind label %cleanup

bb1:                                              ; preds = %start
  br label %bb2

bb3:                                              ; preds = %cleanup
  br label %bb4

cleanup:                                          ; preds = %start
  %3 = landingpad { i8 addrspace(200)*, i32 }
          cleanup
  %4 = extractvalue { i8 addrspace(200)*, i32 } %3, 0
  %5 = extractvalue { i8 addrspace(200)*, i32 } %3, 1
  %6 = getelementptr inbounds { i8 addrspace(200)*, i32 }, { i8 addrspace(200)*, i32 } addrspace(200)* %1, i32 0, i32 0
  store i8 addrspace(200)* %4, i8 addrspace(200)* addrspace(200)* %6, align 16
  %7 = getelementptr inbounds { i8 addrspace(200)*, i32 }, { i8 addrspace(200)*, i32 } addrspace(200)* %1, i32 0, i32 1
  store i32 %5, i32 addrspace(200)* %7, align 16
  br label %bb3

bb4:                                              ; preds = %bb3
  %8 = bitcast { i8 addrspace(200)*, i32 } addrspace(200)* %1 to i8 addrspace(200)* addrspace(200)*
  %9 = load i8 addrspace(200)*, i8 addrspace(200)* addrspace(200)* %8, align 16
  %10 = getelementptr inbounds { i8 addrspace(200)*, i32 }, { i8 addrspace(200)*, i32 } addrspace(200)* %1, i32 0, i32 1
  %11 = load i32, i32 addrspace(200)* %10, align 16
  %12 = insertvalue { i8 addrspace(200)*, i32 } undef, i8 addrspace(200)* %9, 0
  %13 = insertvalue { i8 addrspace(200)*, i32 } %12, i32 %11, 1
  resume { i8 addrspace(200)*, i32 } %13

bb2:                                              ; preds = %bb1
  ret i32 %2
}

; core::ops::function::FnOnce::call_once
; Function Attrs: inlinehint nonlazybind uwtable
define internal void @_ZN4core3ops8function6FnOnce9call_once17he11ed467e3eafa90E(void () addrspace(200)* nonnull %_1) unnamed_addr addrspace(200) #2 {
start:
  %_2 = alloca {}, align 1, addrspace(200)
  call void %_1()
  br label %bb1

bb1:                                              ; preds = %start
  ret void
}

; core::ptr::drop_in_place<std::rt::lang_start<()>::{{closure}}>
; Function Attrs: inlinehint nonlazybind uwtable
define internal void @"_ZN4core3ptr85drop_in_place$LT$std..rt..lang_start$LT$$LP$$RP$$GT$..$u7b$$u7b$closure$u7d$$u7d$$GT$17hf972d9b2453cc0cdE"(i64 addrspace(200)* addrspace(200)* %_1) unnamed_addr addrspace(200) #2 {
start:
  ret void
}

; core::hint::black_box
; Function Attrs: inlinehint nonlazybind uwtable
define internal void @_ZN4core4hint9black_box17h608594853e760038E() unnamed_addr addrspace(200) #2 {
start:
  call void asm sideeffect "", "r,~{memory}"({} addrspace(200)* undef), !srcloc !4
  br label %bb1

bb1:                                              ; preds = %start
  ret void
}

; core::result::Result<T,E>::into_ok
; Function Attrs: inlinehint nonlazybind uwtable
define internal i64 @"_ZN4core6result19Result$LT$T$C$E$GT$7into_ok17h8b3466d9c78b7d39E"(i64 %0) unnamed_addr addrspace(200) #2 {
start:
  %self = alloca i64, align 8, addrspace(200)
  store i64 %0, i64 addrspace(200)* %self, align 8
  switch i64 0, label %bb2 [
    i64 0, label %bb3
    i64 1, label %bb1
  ]

bb2:                                              ; preds = %start
  unreachable

bb3:                                              ; preds = %start
  %x = load i64, i64 addrspace(200)* %self, align 8
  ret i64 %x

bb1:                                              ; preds = %start
; call <T as core::convert::Into<U>>::into
  call void @"_ZN50_$LT$T$u20$as$u20$core..convert..Into$LT$U$GT$$GT$4into17hd5649858ff263162E"()
  unreachable
}

; <T as core::convert::From<T>>::from
; Function Attrs: noreturn nonlazybind uwtable
define internal void @"_ZN50_$LT$T$u20$as$u20$core..convert..From$LT$T$GT$$GT$4from17h70e8d24105190a4bE"() unnamed_addr addrspace(200) #3 {
start:
  call void @llvm.trap()
  unreachable
}

; <T as core::convert::Into<U>>::into
; Function Attrs: noreturn nonlazybind uwtable
define internal void @"_ZN50_$LT$T$u20$as$u20$core..convert..Into$LT$U$GT$$GT$4into17hd5649858ff263162E"() unnamed_addr addrspace(200) #3 {
start:
; call <T as core::convert::From<T>>::from
  call void @"_ZN50_$LT$T$u20$as$u20$core..convert..From$LT$T$GT$$GT$4from17h70e8d24105190a4bE"()
  br label %bb1

bb1:                                              ; preds = %start
  call void @llvm.trap()
  unreachable
}

; <() as std::process::Termination>::report
; Function Attrs: inlinehint nonlazybind uwtable
define internal i32 @"_ZN54_$LT$$LP$$RP$$u20$as$u20$std..process..Termination$GT$6report17h72c5094ddc6f7ab9E"() unnamed_addr addrspace(200) #2 {
start:
; call <std::process::ExitCode as std::process::Termination>::report
  %0 = call i32 @"_ZN68_$LT$std..process..ExitCode$u20$as$u20$std..process..Termination$GT$6report17h663509e7e191845fE"(i8 0)
  br label %bb1

bb1:                                              ; preds = %start
  ret i32 %0
}

; <std::process::ExitCode as std::process::Termination>::report
; Function Attrs: inlinehint nonlazybind uwtable
define internal i32 @"_ZN68_$LT$std..process..ExitCode$u20$as$u20$std..process..Termination$GT$6report17h663509e7e191845fE"(i8 %0) unnamed_addr addrspace(200) #2 {
start:
  %self = alloca i8, align 1, addrspace(200)
  store i8 %0, i8 addrspace(200)* %self, align 1
; call std::sys::unix::process::process_common::ExitCode::as_i32
  %1 = call i32 @_ZN3std3sys4unix7process14process_common8ExitCode6as_i3217h0ea2ba53258620eeE(i8 addrspace(200)* align 1 dereferenceable(1) %self)
  br label %bb1

bb1:                                              ; preds = %start
  ret i32 %1
}

; option::main
; Function Attrs: nonlazybind uwtable
define internal void @_ZN6option4main17h6b0e79ce3cd64c05E() unnamed_addr addrspace(200) #1 {
start:
  %opt = alloca { i32, i32 }, align 4, addrspace(200)
  %nopt = alloca { i32, i32 }, align 4, addrspace(200)
  %y = alloca { i8, i8 }, align 1, addrspace(200)
  %0 = bitcast { i8, i8 } addrspace(200)* %y to %"std::option::Option<i8>::Some" addrspace(200)*
  %1 = getelementptr inbounds %"std::option::Option<i8>::Some", %"std::option::Option<i8>::Some" addrspace(200)* %0, i32 0, i32 1
  store i8 5, i8 addrspace(200)* %1, align 1
  %2 = bitcast { i8, i8 } addrspace(200)* %y to i8 addrspace(200)*
  store i8 1, i8 addrspace(200)* %2, align 1
  %3 = bitcast { i32, i32 } addrspace(200)* %nopt to i32 addrspace(200)*
  store i32 0, i32 addrspace(200)* %3, align 4
  %4 = bitcast { i32, i32 } addrspace(200)* %opt to %"std::option::Option<i32>::Some" addrspace(200)*
  %5 = getelementptr inbounds %"std::option::Option<i32>::Some", %"std::option::Option<i32>::Some" addrspace(200)* %4, i32 0, i32 1
  store i32 10, i32 addrspace(200)* %5, align 4
  %6 = bitcast { i32, i32 } addrspace(200)* %opt to i32 addrspace(200)*
  store i32 1, i32 addrspace(200)* %6, align 4
  ret void
}

; Function Attrs: nonlazybind uwtable
declare i32 @rust_eh_personality(i32, i32, i64, %"unwind::libunwind::_Unwind_Exception" addrspace(200)*, %"unwind::libunwind::_Unwind_Context" addrspace(200)*) unnamed_addr addrspace(200) #1

; std::rt::lang_start_internal
; Function Attrs: nonlazybind uwtable
declare i64 @_ZN3std2rt19lang_start_internal17ha0fc68d8c5a9181bE({} addrspace(200)* nonnull align 1, [3 x i64] addrspace(200)* align 8 dereferenceable(24), i64, i8 addrspace(200)* addrspace(200)*) unnamed_addr addrspace(200) #1

; Function Attrs: cold noreturn nounwind
declare void @llvm.trap() addrspace(200) #4

; Function Attrs: nonlazybind
define i32 @main(i32 %0, i8 addrspace(200)* addrspace(200)* %1) unnamed_addr addrspace(200) #5 {
top:
  %2 = sext i32 %0 to i64
; call std::rt::lang_start
  %3 = call i64 @_ZN3std2rt10lang_start17haac2f9bab1ecdf26E(void () addrspace(200)* @_ZN6option4main17h6b0e79ce3cd64c05E, i64 %2, i8 addrspace(200)* addrspace(200)* %1)
  %4 = trunc i64 %3 to i32
  ret i32 %4
}

attributes #0 = { noinline nonlazybind uwtable "target-cpu"="generic" }
attributes #1 = { nonlazybind uwtable "target-cpu"="generic" }
attributes #2 = { inlinehint nonlazybind uwtable "target-cpu"="generic" }
attributes #3 = { noreturn nonlazybind uwtable "target-cpu"="generic" }
attributes #4 = { cold noreturn nounwind }
attributes #5 = { nonlazybind "target-cpu"="generic" }

!llvm.module.flags = !{!0, !1, !2}

!0 = !{i32 7, !"PIC Level", i32 2}
!1 = !{i32 7, !"PIE Level", i32 2}
!2 = !{i32 2, !"RtLibUseGOT", i32 1}
!3 = !{}
!4 = !{i32 3044489}
