; ModuleID = 'boxes.a6814df74b260b69-cgu.0'
source_filename = "boxes.a6814df74b260b69-cgu.0"
target datalayout = "e-m:e-p270:32:32-p271:32:32-p272:64:64-i64:64-f80:128-n8:16:32:64-S128"
target triple = "x86_64-unknown-linux-gnu"

%"core::fmt::Arguments<'_>" = type { { ptr, i64 }, { ptr, i64 }, { ptr, i64 } }
%"core::ptr::metadata::PtrRepr<[u8]>" = type { [2 x i64] }

@vtable.0 = private unnamed_addr constant <{ ptr, [16 x i8], ptr, ptr, ptr }> <{ ptr @"_ZN4core3ptr85drop_in_place$LT$std..rt..lang_start$LT$$LP$$RP$$GT$..$u7b$$u7b$closure$u7d$$u7d$$GT$17hfaaadd5ea35cdaf6E", [16 x i8] c"\08\00\00\00\00\00\00\00\08\00\00\00\00\00\00\00", ptr @"_ZN4core3ops8function6FnOnce40call_once$u7b$$u7b$vtable.shim$u7d$$u7d$17h58169d774d105c0fE", ptr @"_ZN3std2rt10lang_start28_$u7b$$u7b$closure$u7d$$u7d$17ha17e49378cefa769E", ptr @"_ZN3std2rt10lang_start28_$u7b$$u7b$closure$u7d$$u7d$17ha17e49378cefa769E" }>, align 8
@alloc_91c7fa63c3cfeaa3c795652d5cf060e4 = private unnamed_addr constant <{ [12 x i8] }> <{ [12 x i8] c"invalid args" }>, align 1
@alloc_560206a49c61adca6f3f0639a12632eb = private unnamed_addr constant <{ ptr, [8 x i8] }> <{ ptr @alloc_91c7fa63c3cfeaa3c795652d5cf060e4, [8 x i8] c"\0C\00\00\00\00\00\00\00" }>, align 8
@alloc_513570631223a12912d85da2bec3b15a = private unnamed_addr constant <{}> zeroinitializer, align 8
@alloc_1e0228a93ca3165ad44cd64ff86e557a = private unnamed_addr constant <{ [75 x i8] }> <{ [75 x i8] c"/rustc/1e746d7741d44551e9378daf13b8797322aa0b74/library/core/src/fmt/mod.rs" }>, align 1
@alloc_1c56928eb97a57eeb8f9c7eda336d365 = private unnamed_addr constant <{ ptr, [16 x i8] }> <{ ptr @alloc_1e0228a93ca3165ad44cd64ff86e557a, [16 x i8] c"K\00\00\00\00\00\00\005\01\00\00\0D\00\00\00" }>, align 8
@__rust_no_alloc_shim_is_unstable = external global i8
@alloc_afadc6cdd6a6682ac744b1d10f9d0929 = private unnamed_addr constant <{ [12 x i8] }> <{ [12 x i8] c"b's value = " }>, align 1
@alloc_49a1e817e911805af64bbc7efb390101 = private unnamed_addr constant <{ [1 x i8] }> <{ [1 x i8] c"\0A" }>, align 1
@alloc_8f7c537ef95049e25442527b8c96d857 = private unnamed_addr constant <{ ptr, [8 x i8], ptr, [8 x i8] }> <{ ptr @alloc_afadc6cdd6a6682ac744b1d10f9d0929, [8 x i8] c"\0C\00\00\00\00\00\00\00", ptr @alloc_49a1e817e911805af64bbc7efb390101, [8 x i8] c"\01\00\00\00\00\00\00\00" }>, align 8
@alloc_618cf91eca10cc36ac98c66c3d77169c = private unnamed_addr constant <{ [8 x i8] }> <{ [8 x i8] c"boxes.rs" }>, align 1
@alloc_948f0cfefb3b426a97d62a230acff535 = private unnamed_addr constant <{ ptr, [16 x i8] }> <{ ptr @alloc_618cf91eca10cc36ac98c66c3d77169c, [16 x i8] c"\08\00\00\00\00\00\00\00\05\00\00\00\05\00\00\00" }>, align 8
@alloc_4d2d9f533f467196293de297dbc07f9e = private unnamed_addr constant <{ [14 x i8] }> <{ [14 x i8] c"b's address = " }>, align 1
@alloc_ec2e5ab52d2601fa587607b8efd1b922 = private unnamed_addr constant <{ ptr, [8 x i8], ptr, [8 x i8] }> <{ ptr @alloc_4d2d9f533f467196293de297dbc07f9e, [8 x i8] c"\0E\00\00\00\00\00\00\00", ptr @alloc_49a1e817e911805af64bbc7efb390101, [8 x i8] c"\01\00\00\00\00\00\00\00" }>, align 8
@alloc_3f8eb3f04dfe9b7cc2babffc9e098e45 = private unnamed_addr constant <{ [19 x i8] }> <{ [19 x i8] c"b's real address = " }>, align 1
@alloc_c4a850bef5b5b6115512d81ad0fc4a02 = private unnamed_addr constant <{ ptr, [8 x i8], ptr, [8 x i8] }> <{ ptr @alloc_3f8eb3f04dfe9b7cc2babffc9e098e45, [8 x i8] c"\13\00\00\00\00\00\00\00", ptr @alloc_49a1e817e911805af64bbc7efb390101, [8 x i8] c"\01\00\00\00\00\00\00\00" }>, align 8

; std::sys_common::backtrace::__rust_begin_short_backtrace
; Function Attrs: noinline nonlazybind uwtable
define internal void @_ZN3std10sys_common9backtrace28__rust_begin_short_backtrace17h18b97a97adb4844eE(ptr %f) unnamed_addr #0 {
start:
; call core::ops::function::FnOnce::call_once
  call void @_ZN4core3ops8function6FnOnce9call_once17h2a92cc1ceeacfe3eE(ptr %f)
  call void asm sideeffect "", "~{memory}"(), !srcloc !4
  ret void
}

; std::rt::lang_start
; Function Attrs: nonlazybind uwtable
define hidden i64 @_ZN3std2rt10lang_start17h52cff86c82cd430dE(ptr %main, i64 %argc, ptr %argv, i8 %sigpipe) unnamed_addr #1 {
start:
  %_8 = alloca ptr, align 8
  %_5 = alloca i64, align 8
  store ptr %main, ptr %_8, align 8
; call std::rt::lang_start_internal
  %0 = call i64 @_ZN3std2rt19lang_start_internal17h3995343b9d112556E(ptr align 1 %_8, ptr align 8 @vtable.0, i64 %argc, ptr %argv, i8 %sigpipe)
  store i64 %0, ptr %_5, align 8
  %v = load i64, ptr %_5, align 8, !noundef !5
  ret i64 %v
}

; std::rt::lang_start::{{closure}}
; Function Attrs: inlinehint nonlazybind uwtable
define internal i32 @"_ZN3std2rt10lang_start28_$u7b$$u7b$closure$u7d$$u7d$17ha17e49378cefa769E"(ptr align 8 %_1) unnamed_addr #2 {
start:
  %_4 = load ptr, ptr %_1, align 8, !nonnull !5, !noundef !5
; call std::sys_common::backtrace::__rust_begin_short_backtrace
  call void @_ZN3std10sys_common9backtrace28__rust_begin_short_backtrace17h18b97a97adb4844eE(ptr %_4)
; call <() as std::process::Termination>::report
  %self = call i8 @"_ZN54_$LT$$LP$$RP$$u20$as$u20$std..process..Termination$GT$6report17h3ba6a79af4b50f96E"()
  %_0 = zext i8 %self to i32
  ret i32 %_0
}

; core::fmt::Arguments::new_v1
; Function Attrs: inlinehint nonlazybind uwtable
define internal void @_ZN4core3fmt9Arguments6new_v117he203b927a0f916afE(ptr sret(%"core::fmt::Arguments<'_>") align 8 %_0, ptr align 8 %pieces.0, i64 %pieces.1, ptr align 8 %args.0, i64 %args.1) unnamed_addr #2 {
start:
  %_15 = alloca { ptr, i64 }, align 8
  %_13 = alloca { ptr, i64 }, align 8
  %_11 = alloca %"core::fmt::Arguments<'_>", align 8
  %_3 = icmp ult i64 %pieces.1, %args.1
  br i1 %_3, label %bb1, label %bb2

bb2:                                              ; preds = %start
  %_8 = add i64 %args.1, 1
  %_6 = icmp ugt i64 %pieces.1, %_8
  br i1 %_6, label %bb3, label %bb4

bb1:                                              ; preds = %start
  br label %bb3

bb4:                                              ; preds = %bb2
  store ptr null, ptr %_13, align 8
  %0 = getelementptr inbounds { ptr, i64 }, ptr %_0, i32 0, i32 0
  store ptr %pieces.0, ptr %0, align 8
  %1 = getelementptr inbounds { ptr, i64 }, ptr %_0, i32 0, i32 1
  store i64 %pieces.1, ptr %1, align 8
  %2 = getelementptr inbounds { ptr, i64 }, ptr %_13, i32 0, i32 0
  %3 = load ptr, ptr %2, align 8, !align !6, !noundef !5
  %4 = getelementptr inbounds { ptr, i64 }, ptr %_13, i32 0, i32 1
  %5 = load i64, ptr %4, align 8
  %6 = getelementptr inbounds %"core::fmt::Arguments<'_>", ptr %_0, i32 0, i32 2
  %7 = getelementptr inbounds { ptr, i64 }, ptr %6, i32 0, i32 0
  store ptr %3, ptr %7, align 8
  %8 = getelementptr inbounds { ptr, i64 }, ptr %6, i32 0, i32 1
  store i64 %5, ptr %8, align 8
  %9 = getelementptr inbounds %"core::fmt::Arguments<'_>", ptr %_0, i32 0, i32 1
  %10 = getelementptr inbounds { ptr, i64 }, ptr %9, i32 0, i32 0
  store ptr %args.0, ptr %10, align 8
  %11 = getelementptr inbounds { ptr, i64 }, ptr %9, i32 0, i32 1
  store i64 %args.1, ptr %11, align 8
  ret void

bb3:                                              ; preds = %bb1, %bb2
  store ptr null, ptr %_15, align 8
  %12 = getelementptr inbounds { ptr, i64 }, ptr %_11, i32 0, i32 0
  store ptr @alloc_560206a49c61adca6f3f0639a12632eb, ptr %12, align 8
  %13 = getelementptr inbounds { ptr, i64 }, ptr %_11, i32 0, i32 1
  store i64 1, ptr %13, align 8
  %14 = getelementptr inbounds { ptr, i64 }, ptr %_15, i32 0, i32 0
  %15 = load ptr, ptr %14, align 8, !align !6, !noundef !5
  %16 = getelementptr inbounds { ptr, i64 }, ptr %_15, i32 0, i32 1
  %17 = load i64, ptr %16, align 8
  %18 = getelementptr inbounds %"core::fmt::Arguments<'_>", ptr %_11, i32 0, i32 2
  %19 = getelementptr inbounds { ptr, i64 }, ptr %18, i32 0, i32 0
  store ptr %15, ptr %19, align 8
  %20 = getelementptr inbounds { ptr, i64 }, ptr %18, i32 0, i32 1
  store i64 %17, ptr %20, align 8
  %21 = getelementptr inbounds %"core::fmt::Arguments<'_>", ptr %_11, i32 0, i32 1
  %22 = getelementptr inbounds { ptr, i64 }, ptr %21, i32 0, i32 0
  store ptr @alloc_513570631223a12912d85da2bec3b15a, ptr %22, align 8
  %23 = getelementptr inbounds { ptr, i64 }, ptr %21, i32 0, i32 1
  store i64 0, ptr %23, align 8
; call core::panicking::panic_fmt
  call void @_ZN4core9panicking9panic_fmt17h16a1439d424583c1E(ptr align 8 %_11, ptr align 8 @alloc_1c56928eb97a57eeb8f9c7eda336d365) #12
  unreachable
}

; core::ops::function::FnOnce::call_once{{vtable.shim}}
; Function Attrs: inlinehint nonlazybind uwtable
define internal i32 @"_ZN4core3ops8function6FnOnce40call_once$u7b$$u7b$vtable.shim$u7d$$u7d$17h58169d774d105c0fE"(ptr %_1) unnamed_addr #2 {
start:
  %_2 = alloca {}, align 1
  %0 = load ptr, ptr %_1, align 8, !nonnull !5, !noundef !5
; call core::ops::function::FnOnce::call_once
  %_0 = call i32 @_ZN4core3ops8function6FnOnce9call_once17hcdbfc1063df9363cE(ptr %0)
  ret i32 %_0
}

; core::ops::function::FnOnce::call_once
; Function Attrs: inlinehint nonlazybind uwtable
define internal void @_ZN4core3ops8function6FnOnce9call_once17h2a92cc1ceeacfe3eE(ptr %_1) unnamed_addr #2 {
start:
  %_2 = alloca {}, align 1
  call void %_1()
  ret void
}

; core::ops::function::FnOnce::call_once
; Function Attrs: inlinehint nonlazybind uwtable
define internal i32 @_ZN4core3ops8function6FnOnce9call_once17hcdbfc1063df9363cE(ptr %0) unnamed_addr #2 personality ptr @rust_eh_personality {
start:
  %1 = alloca { ptr, i32 }, align 8
  %_2 = alloca {}, align 1
  %_1 = alloca ptr, align 8
  store ptr %0, ptr %_1, align 8
; invoke std::rt::lang_start::{{closure}}
  %_0 = invoke i32 @"_ZN3std2rt10lang_start28_$u7b$$u7b$closure$u7d$$u7d$17ha17e49378cefa769E"(ptr align 8 %_1)
          to label %bb1 unwind label %cleanup

bb3:                                              ; preds = %cleanup
  %2 = load ptr, ptr %1, align 8, !noundef !5
  %3 = getelementptr inbounds { ptr, i32 }, ptr %1, i32 0, i32 1
  %4 = load i32, ptr %3, align 8, !noundef !5
  %5 = insertvalue { ptr, i32 } poison, ptr %2, 0
  %6 = insertvalue { ptr, i32 } %5, i32 %4, 1
  resume { ptr, i32 } %6

cleanup:                                          ; preds = %start
  %7 = landingpad { ptr, i32 }
          cleanup
  %8 = extractvalue { ptr, i32 } %7, 0
  %9 = extractvalue { ptr, i32 } %7, 1
  %10 = getelementptr inbounds { ptr, i32 }, ptr %1, i32 0, i32 0
  store ptr %8, ptr %10, align 8
  %11 = getelementptr inbounds { ptr, i32 }, ptr %1, i32 0, i32 1
  store i32 %9, ptr %11, align 8
  br label %bb3

bb1:                                              ; preds = %start
  ret i32 %_0
}

; core::ptr::drop_in_place<alloc::boxed::Box<i32>>
; Function Attrs: nonlazybind uwtable
define internal void @"_ZN4core3ptr49drop_in_place$LT$alloc..boxed..Box$LT$i32$GT$$GT$17hd553d34d9a214d09E"(ptr align 8 %_1) unnamed_addr #1 personality ptr @rust_eh_personality {
start:
  %0 = alloca { ptr, i32 }, align 8
  %_6 = load ptr, ptr %_1, align 8, !noundef !5
  br label %bb3

bb3:                                              ; preds = %start
; call <alloc::boxed::Box<T,A> as core::ops::drop::Drop>::drop
  call void @"_ZN72_$LT$alloc..boxed..Box$LT$T$C$A$GT$$u20$as$u20$core..ops..drop..Drop$GT$4drop17h925b7796b5e9608fE"(ptr align 8 %_1)
  ret void

bb4:                                              ; No predecessors!
; invoke <alloc::boxed::Box<T,A> as core::ops::drop::Drop>::drop
  invoke void @"_ZN72_$LT$alloc..boxed..Box$LT$T$C$A$GT$$u20$as$u20$core..ops..drop..Drop$GT$4drop17h925b7796b5e9608fE"(ptr align 8 %_1) #13
          to label %bb1 unwind label %terminate

terminate:                                        ; preds = %bb4
  %1 = landingpad { ptr, i32 }
          filter [0 x ptr] zeroinitializer
  %2 = extractvalue { ptr, i32 } %1, 0
  %3 = extractvalue { ptr, i32 } %1, 1
; call core::panicking::panic_in_cleanup
  call void @_ZN4core9panicking16panic_in_cleanup17h0c7fb62f204ce488E() #14
  unreachable

bb1:                                              ; preds = %bb4
  %4 = load ptr, ptr %0, align 8, !noundef !5
  %5 = getelementptr inbounds { ptr, i32 }, ptr %0, i32 0, i32 1
  %6 = load i32, ptr %5, align 8, !noundef !5
  %7 = insertvalue { ptr, i32 } poison, ptr %4, 0
  %8 = insertvalue { ptr, i32 } %7, i32 %6, 1
  resume { ptr, i32 } %8
}

; core::ptr::drop_in_place<std::rt::lang_start<()>::{{closure}}>
; Function Attrs: inlinehint nonlazybind uwtable
define internal void @"_ZN4core3ptr85drop_in_place$LT$std..rt..lang_start$LT$$LP$$RP$$GT$..$u7b$$u7b$closure$u7d$$u7d$$GT$17hfaaadd5ea35cdaf6E"(ptr align 8 %_1) unnamed_addr #2 {
start:
  ret void
}

; <() as std::process::Termination>::report
; Function Attrs: inlinehint nonlazybind uwtable
define internal i8 @"_ZN54_$LT$$LP$$RP$$u20$as$u20$std..process..Termination$GT$6report17h3ba6a79af4b50f96E"() unnamed_addr #2 {
start:
  ret i8 0
}

; alloc::alloc::exchange_malloc
; Function Attrs: inlinehint nonlazybind uwtable
define internal ptr @_ZN5alloc5alloc15exchange_malloc17h35ae547dde93e02aE(i64 %size, i64 %align) unnamed_addr #2 {
start:
  %self = alloca ptr, align 8
  %_4 = alloca { ptr, i64 }, align 8
  %layout = alloca { i64, i64 }, align 8
  %0 = getelementptr inbounds { i64, i64 }, ptr %layout, i32 0, i32 1
  store i64 %size, ptr %0, align 8
  store i64 %align, ptr %layout, align 8
  %1 = getelementptr inbounds { i64, i64 }, ptr %layout, i32 0, i32 0
  %2 = load i64, ptr %1, align 8, !range !7, !noundef !5
  %3 = getelementptr inbounds { i64, i64 }, ptr %layout, i32 0, i32 1
  %4 = load i64, ptr %3, align 8, !noundef !5
; call alloc::alloc::Global::alloc_impl
  %5 = call { ptr, i64 } @_ZN5alloc5alloc6Global10alloc_impl17hb4aeeaaebda5bba0E(ptr align 1 @alloc_513570631223a12912d85da2bec3b15a, i64 %2, i64 %4, i1 zeroext false)
  store { ptr, i64 } %5, ptr %_4, align 8
  %6 = load ptr, ptr %_4, align 8, !noundef !5
  %7 = ptrtoint ptr %6 to i64
  %8 = icmp eq i64 %7, 0
  %_5 = select i1 %8, i64 1, i64 0
  %9 = icmp eq i64 %_5, 0
  br i1 %9, label %bb3, label %bb1

bb3:                                              ; preds = %start
  %10 = getelementptr inbounds { ptr, i64 }, ptr %_4, i32 0, i32 0
  %ptr.0 = load ptr, ptr %10, align 8, !nonnull !5, !noundef !5
  %11 = getelementptr inbounds { ptr, i64 }, ptr %_4, i32 0, i32 1
  %ptr.1 = load i64, ptr %11, align 8, !noundef !5
  store ptr %ptr.0, ptr %self, align 8
  %_16 = load ptr, ptr %self, align 8, !noundef !5
  ret ptr %_16

bb1:                                              ; preds = %start
  %12 = getelementptr inbounds { i64, i64 }, ptr %layout, i32 0, i32 0
  %13 = load i64, ptr %12, align 8, !range !7, !noundef !5
  %14 = getelementptr inbounds { i64, i64 }, ptr %layout, i32 0, i32 1
  %15 = load i64, ptr %14, align 8, !noundef !5
; call alloc::alloc::handle_alloc_error
  call void @_ZN5alloc5alloc18handle_alloc_error17h9d90dd3d9d02fb33E(i64 %13, i64 %15) #12
  unreachable

bb2:                                              ; No predecessors!
  unreachable
}

; alloc::alloc::Global::alloc_impl
; Function Attrs: inlinehint nonlazybind uwtable
define internal { ptr, i64 } @_ZN5alloc5alloc6Global10alloc_impl17hb4aeeaaebda5bba0E(ptr align 1 %self, i64 %layout.0, i64 %layout.1, i1 zeroext %zeroed) unnamed_addr #2 {
start:
  %0 = alloca i8, align 1
  %_70 = alloca { ptr, i64 }, align 8
  %_69 = alloca %"core::ptr::metadata::PtrRepr<[u8]>", align 8
  %_56 = alloca ptr, align 8
  %_51 = alloca i64, align 8
  %_39 = alloca i64, align 8
  %_32 = alloca { ptr, i64 }, align 8
  %_31 = alloca %"core::ptr::metadata::PtrRepr<[u8]>", align 8
  %_20 = alloca i64, align 8
  %_16 = alloca { ptr, i64 }, align 8
  %self2 = alloca ptr, align 8
  %self1 = alloca ptr, align 8
  %_10 = alloca ptr, align 8
  %raw_ptr = alloca ptr, align 8
  %data = alloca ptr, align 8
  %_6 = alloca { ptr, i64 }, align 8
  %_0 = alloca { ptr, i64 }, align 8
  %1 = icmp eq i64 %layout.1, 0
  br i1 %1, label %bb2, label %bb1

bb2:                                              ; preds = %start
  store i64 %layout.0, ptr %_20, align 8
  %_21 = load i64, ptr %_20, align 8, !range !7, !noundef !5
  %_22 = icmp uge i64 %_21, 1
  %_23 = icmp ule i64 %_21, -9223372036854775808
  %_24 = and i1 %_22, %_23
  call void @llvm.assume(i1 %_24)
  %ptr = inttoptr i64 %_21 to ptr
  store ptr %ptr, ptr %data, align 8
  %_29 = load ptr, ptr %data, align 8, !noundef !5
  store ptr %_29, ptr %_32, align 8
  %2 = getelementptr inbounds { ptr, i64 }, ptr %_32, i32 0, i32 1
  store i64 0, ptr %2, align 8
  %3 = getelementptr inbounds { ptr, i64 }, ptr %_32, i32 0, i32 0
  %4 = load ptr, ptr %3, align 8, !noundef !5
  %5 = getelementptr inbounds { ptr, i64 }, ptr %_32, i32 0, i32 1
  %6 = load i64, ptr %5, align 8, !noundef !5
  %7 = getelementptr inbounds { ptr, i64 }, ptr %_31, i32 0, i32 0
  store ptr %4, ptr %7, align 8
  %8 = getelementptr inbounds { ptr, i64 }, ptr %_31, i32 0, i32 1
  store i64 %6, ptr %8, align 8
  %9 = getelementptr inbounds { ptr, i64 }, ptr %_31, i32 0, i32 0
  %ptr.0 = load ptr, ptr %9, align 8, !noundef !5
  %10 = getelementptr inbounds { ptr, i64 }, ptr %_31, i32 0, i32 1
  %ptr.1 = load i64, ptr %10, align 8, !noundef !5
  %11 = getelementptr inbounds { ptr, i64 }, ptr %_6, i32 0, i32 0
  store ptr %ptr.0, ptr %11, align 8
  %12 = getelementptr inbounds { ptr, i64 }, ptr %_6, i32 0, i32 1
  store i64 %ptr.1, ptr %12, align 8
  %13 = getelementptr inbounds { ptr, i64 }, ptr %_6, i32 0, i32 0
  %14 = load ptr, ptr %13, align 8, !nonnull !5, !noundef !5
  %15 = getelementptr inbounds { ptr, i64 }, ptr %_6, i32 0, i32 1
  %16 = load i64, ptr %15, align 8, !noundef !5
  %17 = getelementptr inbounds { ptr, i64 }, ptr %_0, i32 0, i32 0
  store ptr %14, ptr %17, align 8
  %18 = getelementptr inbounds { ptr, i64 }, ptr %_0, i32 0, i32 1
  store i64 %16, ptr %18, align 8
  br label %bb11

bb1:                                              ; preds = %start
  br i1 %zeroed, label %bb3, label %bb4

bb11:                                             ; preds = %bb10, %bb8, %bb2
  %19 = getelementptr inbounds { ptr, i64 }, ptr %_0, i32 0, i32 0
  %20 = load ptr, ptr %19, align 8, !noundef !5
  %21 = getelementptr inbounds { ptr, i64 }, ptr %_0, i32 0, i32 1
  %22 = load i64, ptr %21, align 8
  %23 = insertvalue { ptr, i64 } poison, ptr %20, 0
  %24 = insertvalue { ptr, i64 } %23, i64 %22, 1
  ret { ptr, i64 } %24

bb4:                                              ; preds = %bb1
  %25 = load volatile i8, ptr @__rust_no_alloc_shim_is_unstable, align 1
  store i8 %25, ptr %0, align 1
  %_44 = load i8, ptr %0, align 1, !noundef !5
  store i64 %layout.0, ptr %_51, align 8
  %_52 = load i64, ptr %_51, align 8, !range !7, !noundef !5
  %_53 = icmp uge i64 %_52, 1
  %_54 = icmp ule i64 %_52, -9223372036854775808
  %_55 = and i1 %_53, %_54
  call void @llvm.assume(i1 %_55)
  %26 = call ptr @__rust_alloc(i64 %layout.1, i64 %_52) #15
  store ptr %26, ptr %raw_ptr, align 8
  br label %bb5

bb3:                                              ; preds = %bb1
  store i64 %layout.0, ptr %_39, align 8
  %_40 = load i64, ptr %_39, align 8, !range !7, !noundef !5
  %_41 = icmp uge i64 %_40, 1
  %_42 = icmp ule i64 %_40, -9223372036854775808
  %_43 = and i1 %_41, %_42
  call void @llvm.assume(i1 %_43)
  %27 = call ptr @__rust_alloc_zeroed(i64 %layout.1, i64 %_40) #15
  store ptr %27, ptr %raw_ptr, align 8
  br label %bb5

bb5:                                              ; preds = %bb3, %bb4
  %ptr3 = load ptr, ptr %raw_ptr, align 8, !noundef !5
  %_57 = ptrtoint ptr %ptr3 to i64
  %28 = icmp eq i64 %_57, 0
  br i1 %28, label %bb15, label %bb16

bb15:                                             ; preds = %bb5
  store ptr null, ptr %self2, align 8
  br label %bb6

bb16:                                             ; preds = %bb5
  store ptr %ptr3, ptr %_56, align 8
  %29 = load ptr, ptr %_56, align 8, !nonnull !5, !noundef !5
  store ptr %29, ptr %self2, align 8
  br label %bb6

bb6:                                              ; preds = %bb16, %bb15
  %30 = load ptr, ptr %self2, align 8, !noundef !5
  %31 = ptrtoint ptr %30 to i64
  %32 = icmp eq i64 %31, 0
  %_61 = select i1 %32, i64 0, i64 1
  %33 = icmp eq i64 %_61, 0
  br i1 %33, label %bb17, label %bb18

bb17:                                             ; preds = %bb6
  store ptr null, ptr %self1, align 8
  br label %bb19

bb18:                                             ; preds = %bb6
  %v = load ptr, ptr %self2, align 8, !nonnull !5, !noundef !5
  store ptr %v, ptr %self1, align 8
  br label %bb19

bb19:                                             ; preds = %bb18, %bb17
  %34 = load ptr, ptr %self1, align 8, !noundef !5
  %35 = ptrtoint ptr %34 to i64
  %36 = icmp eq i64 %35, 0
  %_63 = select i1 %36, i64 1, i64 0
  %37 = icmp eq i64 %_63, 0
  br i1 %37, label %bb21, label %bb20

bb21:                                             ; preds = %bb19
  %v4 = load ptr, ptr %self1, align 8, !nonnull !5, !noundef !5
  store ptr %v4, ptr %_10, align 8
  br label %bb7

bb20:                                             ; preds = %bb19
  store ptr null, ptr %_10, align 8
  br label %bb7

bb7:                                              ; preds = %bb20, %bb21
  %38 = load ptr, ptr %_10, align 8, !noundef !5
  %39 = ptrtoint ptr %38 to i64
  %40 = icmp eq i64 %39, 0
  %_14 = select i1 %40, i64 1, i64 0
  %41 = icmp eq i64 %_14, 0
  br i1 %41, label %bb8, label %bb10

bb8:                                              ; preds = %bb7
  %ptr5 = load ptr, ptr %_10, align 8, !nonnull !5, !noundef !5
  store ptr %ptr5, ptr %_70, align 8
  %42 = getelementptr inbounds { ptr, i64 }, ptr %_70, i32 0, i32 1
  store i64 %layout.1, ptr %42, align 8
  %43 = getelementptr inbounds { ptr, i64 }, ptr %_70, i32 0, i32 0
  %44 = load ptr, ptr %43, align 8, !noundef !5
  %45 = getelementptr inbounds { ptr, i64 }, ptr %_70, i32 0, i32 1
  %46 = load i64, ptr %45, align 8, !noundef !5
  %47 = getelementptr inbounds { ptr, i64 }, ptr %_69, i32 0, i32 0
  store ptr %44, ptr %47, align 8
  %48 = getelementptr inbounds { ptr, i64 }, ptr %_69, i32 0, i32 1
  store i64 %46, ptr %48, align 8
  %49 = getelementptr inbounds { ptr, i64 }, ptr %_69, i32 0, i32 0
  %ptr.06 = load ptr, ptr %49, align 8, !noundef !5
  %50 = getelementptr inbounds { ptr, i64 }, ptr %_69, i32 0, i32 1
  %ptr.17 = load i64, ptr %50, align 8, !noundef !5
  %51 = getelementptr inbounds { ptr, i64 }, ptr %_16, i32 0, i32 0
  store ptr %ptr.06, ptr %51, align 8
  %52 = getelementptr inbounds { ptr, i64 }, ptr %_16, i32 0, i32 1
  store i64 %ptr.17, ptr %52, align 8
  %53 = getelementptr inbounds { ptr, i64 }, ptr %_16, i32 0, i32 0
  %54 = load ptr, ptr %53, align 8, !nonnull !5, !noundef !5
  %55 = getelementptr inbounds { ptr, i64 }, ptr %_16, i32 0, i32 1
  %56 = load i64, ptr %55, align 8, !noundef !5
  %57 = getelementptr inbounds { ptr, i64 }, ptr %_0, i32 0, i32 0
  store ptr %54, ptr %57, align 8
  %58 = getelementptr inbounds { ptr, i64 }, ptr %_0, i32 0, i32 1
  store i64 %56, ptr %58, align 8
  br label %bb11

bb10:                                             ; preds = %bb7
  store ptr null, ptr %_0, align 8
  br label %bb11

bb9:                                              ; No predecessors!
  unreachable
}

; <alloc::alloc::Global as core::alloc::Allocator>::deallocate
; Function Attrs: inlinehint nonlazybind uwtable
define internal void @"_ZN63_$LT$alloc..alloc..Global$u20$as$u20$core..alloc..Allocator$GT$10deallocate17h55139eb961610b85E"(ptr align 1 %self, ptr %ptr, i64 %layout.0, i64 %layout.1) unnamed_addr #2 {
start:
  %_11 = alloca i64, align 8
  %0 = icmp eq i64 %layout.1, 0
  br i1 %0, label %bb2, label %bb1

bb2:                                              ; preds = %start
  br label %bb3

bb1:                                              ; preds = %start
  store i64 %layout.0, ptr %_11, align 8
  %_12 = load i64, ptr %_11, align 8, !range !7, !noundef !5
  %_13 = icmp uge i64 %_12, 1
  %_14 = icmp ule i64 %_12, -9223372036854775808
  %_15 = and i1 %_13, %_14
  call void @llvm.assume(i1 %_15)
  call void @__rust_dealloc(ptr %ptr, i64 %layout.1, i64 %_12) #15
  br label %bb3

bb3:                                              ; preds = %bb1, %bb2
  ret void
}

; <alloc::boxed::Box<T,A> as core::fmt::Display>::fmt
; Function Attrs: nonlazybind uwtable
define internal zeroext i1 @"_ZN69_$LT$alloc..boxed..Box$LT$T$C$A$GT$$u20$as$u20$core..fmt..Display$GT$3fmt17hfc5b2dd9f3cb9bd7E"(ptr align 8 %self, ptr align 8 %f) unnamed_addr #1 {
start:
  %_4 = load ptr, ptr %self, align 8, !nonnull !5, !align !8, !noundef !5
; call core::fmt::num::imp::<impl core::fmt::Display for i32>::fmt
  %_0 = call zeroext i1 @"_ZN4core3fmt3num3imp52_$LT$impl$u20$core..fmt..Display$u20$for$u20$i32$GT$3fmt17h5e0a766049816c9fE"(ptr align 4 %_4, ptr align 8 %f)
  ret i1 %_0
}

; <alloc::boxed::Box<T,A> as core::fmt::Pointer>::fmt
; Function Attrs: nonlazybind uwtable
define internal zeroext i1 @"_ZN69_$LT$alloc..boxed..Box$LT$T$C$A$GT$$u20$as$u20$core..fmt..Pointer$GT$3fmt17h49bf46a989fc5915E"(ptr align 8 %self, ptr align 8 %f) unnamed_addr #1 {
start:
  %_5 = load ptr, ptr %self, align 8, !nonnull !5, !align !8, !noundef !5
  %_7 = ptrtoint ptr %_5 to i64
; call core::fmt::pointer_fmt_inner
  %_0 = call zeroext i1 @_ZN4core3fmt17pointer_fmt_inner17h5b145cdca46b2a1cE(i64 %_7, ptr align 8 %f)
  ret i1 %_0
}

; <alloc::boxed::Box<T,A> as core::ops::drop::Drop>::drop
; Function Attrs: inlinehint nonlazybind uwtable
define internal void @"_ZN72_$LT$alloc..boxed..Box$LT$T$C$A$GT$$u20$as$u20$core..ops..drop..Drop$GT$4drop17h925b7796b5e9608fE"(ptr align 8 %self) unnamed_addr #2 {
start:
  %0 = alloca i64, align 8
  %1 = alloca i64, align 8
  %unique = alloca ptr, align 8
  %self1 = alloca ptr, align 8
  %_9 = alloca ptr, align 8
  %layout = alloca { i64, i64 }, align 8
  %ptr = load ptr, ptr %self, align 8, !nonnull !5, !noundef !5
  store i64 4, ptr %1, align 8
  %_12 = load i64, ptr %1, align 8, !noundef !5
  store i64 4, ptr %0, align 8
  %_13 = load i64, ptr %0, align 8, !noundef !5
  %2 = getelementptr inbounds { i64, i64 }, ptr %layout, i32 0, i32 1
  store i64 %_12, ptr %2, align 8
  store i64 %_13, ptr %layout, align 8
  %3 = getelementptr inbounds { i64, i64 }, ptr %layout, i32 0, i32 1
  %_5 = load i64, ptr %3, align 8, !noundef !5
  %4 = icmp eq i64 %_5, 0
  br i1 %4, label %bb3, label %bb1

bb3:                                              ; preds = %start
  br label %bb4

bb1:                                              ; preds = %start
  %_8 = getelementptr i8, ptr %self, i64 8
  store ptr %ptr, ptr %self1, align 8
  %_24 = load ptr, ptr %self1, align 8, !noundef !5
  store ptr %_24, ptr %unique, align 8
  %_29 = load ptr, ptr %unique, align 8, !noundef !5
  store ptr %_29, ptr %_9, align 8
  %5 = getelementptr inbounds { i64, i64 }, ptr %layout, i32 0, i32 0
  %_10.0 = load i64, ptr %5, align 8, !range !7, !noundef !5
  %6 = getelementptr inbounds { i64, i64 }, ptr %layout, i32 0, i32 1
  %_10.1 = load i64, ptr %6, align 8, !noundef !5
  %7 = load ptr, ptr %_9, align 8, !nonnull !5, !noundef !5
; call <alloc::alloc::Global as core::alloc::Allocator>::deallocate
  call void @"_ZN63_$LT$alloc..alloc..Global$u20$as$u20$core..alloc..Allocator$GT$10deallocate17h55139eb961610b85E"(ptr align 1 %_8, ptr %7, i64 %_10.0, i64 %_10.1)
  br label %bb4

bb4:                                              ; preds = %bb1, %bb3
  ret void
}

; boxes::main
; Function Attrs: nonlazybind uwtable
define internal void @_ZN5boxes4main17hdc718e5a088f85f1E() unnamed_addr #1 personality ptr @rust_eh_personality {
start:
  %0 = alloca { ptr, i32 }, align 8
  %_0.i2 = alloca { ptr, ptr }, align 8
  %_0.i1 = alloca { ptr, ptr }, align 8
  %_0.i = alloca { ptr, ptr }, align 8
  %1 = alloca { ptr, i32 }, align 8
  %_23 = alloca [1 x { ptr, ptr }], align 8
  %_19 = alloca %"core::fmt::Arguments<'_>", align 8
  %_15 = alloca [1 x { ptr, ptr }], align 8
  %_11 = alloca %"core::fmt::Arguments<'_>", align 8
  %_7 = alloca [1 x { ptr, ptr }], align 8
  %_3 = alloca %"core::fmt::Arguments<'_>", align 8
  %b = alloca ptr, align 8
; invoke alloc::alloc::exchange_malloc
  %_4.i = invoke ptr @_ZN5alloc5alloc15exchange_malloc17h35ae547dde93e02aE(i64 4, i64 4)
          to label %"_ZN5alloc5boxed12Box$LT$T$GT$3new17h6f6ccb75d73dfff8E.exit" unwind label %cleanup.i

cleanup.i:                                        ; preds = %start
  %2 = landingpad { ptr, i32 }
          cleanup
  %3 = extractvalue { ptr, i32 } %2, 0
  %4 = extractvalue { ptr, i32 } %2, 1
  store ptr %3, ptr %0, align 8
  %5 = getelementptr inbounds { ptr, i32 }, ptr %0, i32 0, i32 1
  store i32 %4, ptr %5, align 8
  %6 = load ptr, ptr %0, align 8, !noundef !5
  %7 = getelementptr inbounds { ptr, i32 }, ptr %0, i32 0, i32 1
  %8 = load i32, ptr %7, align 8, !noundef !5
  %9 = insertvalue { ptr, i32 } poison, ptr %6, 0
  %10 = insertvalue { ptr, i32 } %9, i32 %8, 1
  resume { ptr, i32 } %10

"_ZN5alloc5boxed12Box$LT$T$GT$3new17h6f6ccb75d73dfff8E.exit": ; preds = %start
  store i32 5, ptr %_4.i, align 4
  store ptr %_4.i, ptr %b, align 8
  %_29 = load ptr, ptr %b, align 8, !noundef !5
  %_31 = ptrtoint ptr %_29 to i64
  %_34 = and i64 %_31, 3
  %_35 = icmp eq i64 %_34, 0
  %11 = call i1 @llvm.expect.i1(i1 %_35, i1 true)
  br i1 %11, label %bb14, label %panic

bb14:                                             ; preds = %"_ZN5alloc5boxed12Box$LT$T$GT$3new17h6f6ccb75d73dfff8E.exit"
  store ptr %_29, ptr %_0.i1, align 8
  %12 = getelementptr inbounds { ptr, ptr }, ptr %_0.i1, i32 0, i32 1
  store ptr @"_ZN4core3fmt3num3imp52_$LT$impl$u20$core..fmt..Display$u20$for$u20$i32$GT$3fmt17h5e0a766049816c9fE", ptr %12, align 8
  %13 = load ptr, ptr %_0.i1, align 8, !nonnull !5, !align !9, !noundef !5
  %14 = getelementptr inbounds { ptr, ptr }, ptr %_0.i1, i32 0, i32 1
  %15 = load ptr, ptr %14, align 8, !nonnull !5, !noundef !5
  %16 = insertvalue { ptr, ptr } poison, ptr %13, 0
  %17 = insertvalue { ptr, ptr } %16, ptr %15, 1
  br label %bb2

panic:                                            ; preds = %"_ZN5alloc5boxed12Box$LT$T$GT$3new17h6f6ccb75d73dfff8E.exit"
; call core::panicking::panic_misaligned_pointer_dereference
  call void @_ZN4core9panicking36panic_misaligned_pointer_dereference17h855091900ec51147E(i64 4, i64 %_31, ptr align 8 @alloc_948f0cfefb3b426a97d62a230acff535) #16
  unreachable

bb12:                                             ; preds = %cleanup
; invoke core::ptr::drop_in_place<alloc::boxed::Box<i32>>
  invoke void @"_ZN4core3ptr49drop_in_place$LT$alloc..boxed..Box$LT$i32$GT$$GT$17hd553d34d9a214d09E"(ptr align 8 %b) #13
          to label %bb13 unwind label %terminate

cleanup:                                          ; preds = %bb9, %bb8, %bb6, %bb5, %bb3, %bb2
  %18 = landingpad { ptr, i32 }
          cleanup
  %19 = extractvalue { ptr, i32 } %18, 0
  %20 = extractvalue { ptr, i32 } %18, 1
  %21 = getelementptr inbounds { ptr, i32 }, ptr %1, i32 0, i32 0
  store ptr %19, ptr %21, align 8
  %22 = getelementptr inbounds { ptr, i32 }, ptr %1, i32 0, i32 1
  store i32 %20, ptr %22, align 8
  br label %bb12

bb2:                                              ; preds = %bb14
  %_8.0 = extractvalue { ptr, ptr } %17, 0
  %_8.1 = extractvalue { ptr, ptr } %17, 1
  %23 = getelementptr inbounds [1 x { ptr, ptr }], ptr %_7, i64 0, i64 0
  %24 = getelementptr inbounds { ptr, ptr }, ptr %23, i32 0, i32 0
  store ptr %_8.0, ptr %24, align 8
  %25 = getelementptr inbounds { ptr, ptr }, ptr %23, i32 0, i32 1
  store ptr %_8.1, ptr %25, align 8
; invoke core::fmt::Arguments::new_v1
  invoke void @_ZN4core3fmt9Arguments6new_v117he203b927a0f916afE(ptr sret(%"core::fmt::Arguments<'_>") align 8 %_3, ptr align 8 @alloc_8f7c537ef95049e25442527b8c96d857, i64 2, ptr align 8 %_7, i64 1)
          to label %bb3 unwind label %cleanup

bb3:                                              ; preds = %bb2
; invoke std::io::stdio::_print
  invoke void @_ZN3std2io5stdio6_print17h611ff38a98ac9ea1E(ptr align 8 %_3)
          to label %bb4 unwind label %cleanup

bb4:                                              ; preds = %bb3
  store ptr %b, ptr %_0.i, align 8
  %26 = getelementptr inbounds { ptr, ptr }, ptr %_0.i, i32 0, i32 1
  store ptr @"_ZN69_$LT$alloc..boxed..Box$LT$T$C$A$GT$$u20$as$u20$core..fmt..Display$GT$3fmt17hfc5b2dd9f3cb9bd7E", ptr %26, align 8
  %27 = load ptr, ptr %_0.i, align 8, !nonnull !5, !align !9, !noundef !5
  %28 = getelementptr inbounds { ptr, ptr }, ptr %_0.i, i32 0, i32 1
  %29 = load ptr, ptr %28, align 8, !nonnull !5, !noundef !5
  %30 = insertvalue { ptr, ptr } poison, ptr %27, 0
  %31 = insertvalue { ptr, ptr } %30, ptr %29, 1
  br label %bb5

bb5:                                              ; preds = %bb4
  %_16.0 = extractvalue { ptr, ptr } %31, 0
  %_16.1 = extractvalue { ptr, ptr } %31, 1
  %32 = getelementptr inbounds [1 x { ptr, ptr }], ptr %_15, i64 0, i64 0
  %33 = getelementptr inbounds { ptr, ptr }, ptr %32, i32 0, i32 0
  store ptr %_16.0, ptr %33, align 8
  %34 = getelementptr inbounds { ptr, ptr }, ptr %32, i32 0, i32 1
  store ptr %_16.1, ptr %34, align 8
; invoke core::fmt::Arguments::new_v1
  invoke void @_ZN4core3fmt9Arguments6new_v117he203b927a0f916afE(ptr sret(%"core::fmt::Arguments<'_>") align 8 %_11, ptr align 8 @alloc_ec2e5ab52d2601fa587607b8efd1b922, i64 2, ptr align 8 %_15, i64 1)
          to label %bb6 unwind label %cleanup

bb6:                                              ; preds = %bb5
; invoke std::io::stdio::_print
  invoke void @_ZN3std2io5stdio6_print17h611ff38a98ac9ea1E(ptr align 8 %_11)
          to label %bb7 unwind label %cleanup

bb7:                                              ; preds = %bb6
  store ptr %b, ptr %_0.i2, align 8
  %35 = getelementptr inbounds { ptr, ptr }, ptr %_0.i2, i32 0, i32 1
  store ptr @"_ZN69_$LT$alloc..boxed..Box$LT$T$C$A$GT$$u20$as$u20$core..fmt..Pointer$GT$3fmt17h49bf46a989fc5915E", ptr %35, align 8
  %36 = load ptr, ptr %_0.i2, align 8, !nonnull !5, !align !9, !noundef !5
  %37 = getelementptr inbounds { ptr, ptr }, ptr %_0.i2, i32 0, i32 1
  %38 = load ptr, ptr %37, align 8, !nonnull !5, !noundef !5
  %39 = insertvalue { ptr, ptr } poison, ptr %36, 0
  %40 = insertvalue { ptr, ptr } %39, ptr %38, 1
  br label %bb8

bb8:                                              ; preds = %bb7
  %_24.0 = extractvalue { ptr, ptr } %40, 0
  %_24.1 = extractvalue { ptr, ptr } %40, 1
  %41 = getelementptr inbounds [1 x { ptr, ptr }], ptr %_23, i64 0, i64 0
  %42 = getelementptr inbounds { ptr, ptr }, ptr %41, i32 0, i32 0
  store ptr %_24.0, ptr %42, align 8
  %43 = getelementptr inbounds { ptr, ptr }, ptr %41, i32 0, i32 1
  store ptr %_24.1, ptr %43, align 8
; invoke core::fmt::Arguments::new_v1
  invoke void @_ZN4core3fmt9Arguments6new_v117he203b927a0f916afE(ptr sret(%"core::fmt::Arguments<'_>") align 8 %_19, ptr align 8 @alloc_c4a850bef5b5b6115512d81ad0fc4a02, i64 2, ptr align 8 %_23, i64 1)
          to label %bb9 unwind label %cleanup

bb9:                                              ; preds = %bb8
; invoke std::io::stdio::_print
  invoke void @_ZN3std2io5stdio6_print17h611ff38a98ac9ea1E(ptr align 8 %_19)
          to label %bb10 unwind label %cleanup

bb10:                                             ; preds = %bb9
; call core::ptr::drop_in_place<alloc::boxed::Box<i32>>
  call void @"_ZN4core3ptr49drop_in_place$LT$alloc..boxed..Box$LT$i32$GT$$GT$17hd553d34d9a214d09E"(ptr align 8 %b)
  ret void

terminate:                                        ; preds = %bb12
  %44 = landingpad { ptr, i32 }
          filter [0 x ptr] zeroinitializer
  %45 = extractvalue { ptr, i32 } %44, 0
  %46 = extractvalue { ptr, i32 } %44, 1
; call core::panicking::panic_in_cleanup
  call void @_ZN4core9panicking16panic_in_cleanup17h0c7fb62f204ce488E() #14
  unreachable

bb13:                                             ; preds = %bb12
  %47 = load ptr, ptr %1, align 8, !noundef !5
  %48 = getelementptr inbounds { ptr, i32 }, ptr %1, i32 0, i32 1
  %49 = load i32, ptr %48, align 8, !noundef !5
  %50 = insertvalue { ptr, i32 } poison, ptr %47, 0
  %51 = insertvalue { ptr, i32 } %50, i32 %49, 1
  resume { ptr, i32 } %51
}

; std::rt::lang_start_internal
; Function Attrs: nonlazybind uwtable
declare i64 @_ZN3std2rt19lang_start_internal17h3995343b9d112556E(ptr align 1, ptr align 8, i64, ptr, i8) unnamed_addr #1

; core::fmt::num::imp::<impl core::fmt::Display for i32>::fmt
; Function Attrs: nonlazybind uwtable
declare zeroext i1 @"_ZN4core3fmt3num3imp52_$LT$impl$u20$core..fmt..Display$u20$for$u20$i32$GT$3fmt17h5e0a766049816c9fE"(ptr align 4, ptr align 8) unnamed_addr #1

; core::panicking::panic_fmt
; Function Attrs: cold noinline noreturn nonlazybind uwtable
declare void @_ZN4core9panicking9panic_fmt17h16a1439d424583c1E(ptr align 8, ptr align 8) unnamed_addr #3

; Function Attrs: nonlazybind uwtable
declare i32 @rust_eh_personality(i32, i32, i64, ptr, ptr) unnamed_addr #1

; core::panicking::panic_in_cleanup
; Function Attrs: cold noinline noreturn nounwind nonlazybind uwtable
declare void @_ZN4core9panicking16panic_in_cleanup17h0c7fb62f204ce488E() unnamed_addr #4

; alloc::alloc::handle_alloc_error
; Function Attrs: cold noreturn nonlazybind uwtable
declare void @_ZN5alloc5alloc18handle_alloc_error17h9d90dd3d9d02fb33E(i64, i64) unnamed_addr #5

; Function Attrs: nocallback nofree nosync nounwind willreturn memory(inaccessiblemem: readwrite)
declare void @llvm.assume(i1 noundef) #6

; Function Attrs: nounwind nonlazybind allockind("alloc,uninitialized,aligned") allocsize(0) uwtable
declare noalias ptr @__rust_alloc(i64, i64 allocalign) unnamed_addr #7

; Function Attrs: nounwind nonlazybind allockind("alloc,zeroed,aligned") allocsize(0) uwtable
declare noalias ptr @__rust_alloc_zeroed(i64, i64 allocalign) unnamed_addr #8

; Function Attrs: nounwind nonlazybind allockind("free") uwtable
declare void @__rust_dealloc(ptr allocptr, i64, i64) unnamed_addr #9

; core::fmt::pointer_fmt_inner
; Function Attrs: nonlazybind uwtable
declare zeroext i1 @_ZN4core3fmt17pointer_fmt_inner17h5b145cdca46b2a1cE(i64, ptr align 8) unnamed_addr #1

; Function Attrs: nocallback nofree nosync nounwind willreturn memory(none)
declare i1 @llvm.expect.i1(i1, i1) #10

; core::panicking::panic_misaligned_pointer_dereference
; Function Attrs: cold noinline noreturn nounwind nonlazybind uwtable
declare void @_ZN4core9panicking36panic_misaligned_pointer_dereference17h855091900ec51147E(i64, i64, ptr align 8) unnamed_addr #4

; std::io::stdio::_print
; Function Attrs: nonlazybind uwtable
declare void @_ZN3std2io5stdio6_print17h611ff38a98ac9ea1E(ptr align 8) unnamed_addr #1

; Function Attrs: nonlazybind
define i32 @main(i32 %0, ptr %1) unnamed_addr #11 {
top:
  %2 = sext i32 %0 to i64
; call std::rt::lang_start
  %3 = call i64 @_ZN3std2rt10lang_start17h52cff86c82cd430dE(ptr @_ZN5boxes4main17hdc718e5a088f85f1E, i64 %2, ptr %1, i8 0)
  %4 = trunc i64 %3 to i32
  ret i32 %4
}

attributes #0 = { noinline nonlazybind uwtable "probe-stack"="inline-asm" "target-cpu"="x86-64" }
attributes #1 = { nonlazybind uwtable "probe-stack"="inline-asm" "target-cpu"="x86-64" }
attributes #2 = { inlinehint nonlazybind uwtable "probe-stack"="inline-asm" "target-cpu"="x86-64" }
attributes #3 = { cold noinline noreturn nonlazybind uwtable "probe-stack"="inline-asm" "target-cpu"="x86-64" }
attributes #4 = { cold noinline noreturn nounwind nonlazybind uwtable "probe-stack"="inline-asm" "target-cpu"="x86-64" }
attributes #5 = { cold noreturn nonlazybind uwtable "probe-stack"="inline-asm" "target-cpu"="x86-64" }
attributes #6 = { nocallback nofree nosync nounwind willreturn memory(inaccessiblemem: readwrite) }
attributes #7 = { nounwind nonlazybind allockind("alloc,uninitialized,aligned") allocsize(0) uwtable "alloc-family"="__rust_alloc" "probe-stack"="inline-asm" "target-cpu"="x86-64" }
attributes #8 = { nounwind nonlazybind allockind("alloc,zeroed,aligned") allocsize(0) uwtable "alloc-family"="__rust_alloc" "probe-stack"="inline-asm" "target-cpu"="x86-64" }
attributes #9 = { nounwind nonlazybind allockind("free") uwtable "alloc-family"="__rust_alloc" "probe-stack"="inline-asm" "target-cpu"="x86-64" }
attributes #10 = { nocallback nofree nosync nounwind willreturn memory(none) }
attributes #11 = { nonlazybind "target-cpu"="x86-64" }
attributes #12 = { noreturn }
attributes #13 = { noinline }
attributes #14 = { noinline noreturn nounwind }
attributes #15 = { nounwind }
attributes #16 = { noreturn nounwind }

!llvm.module.flags = !{!0, !1, !2}
!llvm.ident = !{!3}

!0 = !{i32 8, !"PIC Level", i32 2}
!1 = !{i32 7, !"PIE Level", i32 2}
!2 = !{i32 2, !"RtLibUseGOT", i32 1}
!3 = !{!"rustc version 1.74.0-nightly (1e746d774 2023-09-07)"}
!4 = !{i32 2102049}
!5 = !{}
!6 = !{i64 8}
!7 = !{i64 1, i64 -9223372036854775807}
!8 = !{i64 4}
!9 = !{i64 1}
