; ModuleID = 'while_loop.1a939238f2d37887-cgu.0'
source_filename = "while_loop.1a939238f2d37887-cgu.0"
target datalayout = "e-m:e-p270:32:32-p271:32:32-p272:64:64-i64:64-f80:128-n8:16:32:64-S128"
target triple = "x86_64-unknown-linux-gnu"

%"core::fmt::Arguments<'_>" = type { { ptr, i64 }, { ptr, i64 }, { ptr, i64 } }

@vtable.0 = private unnamed_addr constant <{ ptr, [16 x i8], ptr, ptr, ptr }> <{ ptr @"_ZN4core3ptr85drop_in_place$LT$std..rt..lang_start$LT$$LP$$RP$$GT$..$u7b$$u7b$closure$u7d$$u7d$$GT$17h0ab4a5561bf78c84E", [16 x i8] c"\08\00\00\00\00\00\00\00\08\00\00\00\00\00\00\00", ptr @"_ZN4core3ops8function6FnOnce40call_once$u7b$$u7b$vtable.shim$u7d$$u7d$17h8dade2236dd012a9E", ptr @"_ZN3std2rt10lang_start28_$u7b$$u7b$closure$u7d$$u7d$17h1f9e92a4ec3ce5f0E", ptr @"_ZN3std2rt10lang_start28_$u7b$$u7b$closure$u7d$$u7d$17h1f9e92a4ec3ce5f0E" }>, align 8
@alloc_91c7fa63c3cfeaa3c795652d5cf060e4 = private unnamed_addr constant <{ [12 x i8] }> <{ [12 x i8] c"invalid args" }>, align 1
@alloc_560206a49c61adca6f3f0639a12632eb = private unnamed_addr constant <{ ptr, [8 x i8] }> <{ ptr @alloc_91c7fa63c3cfeaa3c795652d5cf060e4, [8 x i8] c"\0C\00\00\00\00\00\00\00" }>, align 8
@alloc_513570631223a12912d85da2bec3b15a = private unnamed_addr constant <{}> zeroinitializer, align 8
@alloc_1e0228a93ca3165ad44cd64ff86e557a = private unnamed_addr constant <{ [75 x i8] }> <{ [75 x i8] c"/rustc/1e746d7741d44551e9378daf13b8797322aa0b74/library/core/src/fmt/mod.rs" }>, align 1
@alloc_1c56928eb97a57eeb8f9c7eda336d365 = private unnamed_addr constant <{ ptr, [16 x i8] }> <{ ptr @alloc_1e0228a93ca3165ad44cd64ff86e557a, [16 x i8] c"K\00\00\00\00\00\00\005\01\00\00\0D\00\00\00" }>, align 8
@alloc_dcbf18b344ed78f2c1400ca0331385ee = private unnamed_addr constant <{ [17 x i8] }> <{ [17 x i8] c"Cycle with while " }>, align 1
@alloc_aa8949e1fb3783c4ba3f17396bbaa3bf = private unnamed_addr constant <{ [2 x i8] }> <{ [2 x i8] c"!\0A" }>, align 1
@alloc_922fe7c1783e7fa968268afd1714605f = private unnamed_addr constant <{ ptr, [8 x i8], ptr, [8 x i8] }> <{ ptr @alloc_dcbf18b344ed78f2c1400ca0331385ee, [8 x i8] c"\11\00\00\00\00\00\00\00", ptr @alloc_aa8949e1fb3783c4ba3f17396bbaa3bf, [8 x i8] c"\02\00\00\00\00\00\00\00" }>, align 8
@alloc_0449f50cc9d7c97e721df3a853abaef8 = private unnamed_addr constant <{ [13 x i8] }> <{ [13 x i8] c"while_loop.rs" }>, align 1
@alloc_87c33f45450d7c201b51c8fd67d95bb1 = private unnamed_addr constant <{ ptr, [16 x i8] }> <{ ptr @alloc_0449f50cc9d7c97e721df3a853abaef8, [16 x i8] c"\0D\00\00\00\00\00\00\00\06\00\00\00\09\00\00\00" }>, align 8
@str.1 = internal constant [33 x i8] c"attempt to subtract with overflow"

; std::sys_common::backtrace::__rust_begin_short_backtrace
; Function Attrs: noinline nonlazybind uwtable
define internal void @_ZN3std10sys_common9backtrace28__rust_begin_short_backtrace17hcf2560921eb9d6fbE(ptr %f) unnamed_addr #0 {
start:
; call core::ops::function::FnOnce::call_once
  call void @_ZN4core3ops8function6FnOnce9call_once17hb674f4d9eb0df5bfE(ptr %f)
  call void asm sideeffect "", "~{memory}"(), !srcloc !4
  ret void
}

; std::rt::lang_start
; Function Attrs: nonlazybind uwtable
define hidden i64 @_ZN3std2rt10lang_start17h342fff3ed690143dE(ptr %main, i64 %argc, ptr %argv, i8 %sigpipe) unnamed_addr #1 {
start:
  %_8 = alloca ptr, align 8
  %_5 = alloca i64, align 8
  store ptr %main, ptr %_8, align 8
; call std::rt::lang_start_internal
  %0 = call i64 @_ZN3std2rt19lang_start_internal17h3995343b9d112556E(ptr align 1 %_8, ptr align 8 @vtable.0, i64 %argc, ptr %argv, i8 %sigpipe)
  store i64 %0, ptr %_5, align 8
  %v = load i64, ptr %_5, align 8, !noundef !5
  ret i64 %v
}

; std::rt::lang_start::{{closure}}
; Function Attrs: inlinehint nonlazybind uwtable
define internal i32 @"_ZN3std2rt10lang_start28_$u7b$$u7b$closure$u7d$$u7d$17h1f9e92a4ec3ce5f0E"(ptr align 8 %_1) unnamed_addr #2 {
start:
  %_4 = load ptr, ptr %_1, align 8, !nonnull !5, !noundef !5
; call std::sys_common::backtrace::__rust_begin_short_backtrace
  call void @_ZN3std10sys_common9backtrace28__rust_begin_short_backtrace17hcf2560921eb9d6fbE(ptr %_4)
; call <() as std::process::Termination>::report
  %self = call i8 @"_ZN54_$LT$$LP$$RP$$u20$as$u20$std..process..Termination$GT$6report17h3d98925a36307cafE"()
  %_0 = zext i8 %self to i32
  ret i32 %_0
}

; core::fmt::Arguments::new_v1
; Function Attrs: inlinehint nonlazybind uwtable
define internal void @_ZN4core3fmt9Arguments6new_v117h939ef316efd8ea8dE(ptr sret(%"core::fmt::Arguments<'_>") align 8 %_0, ptr align 8 %pieces.0, i64 %pieces.1, ptr align 8 %args.0, i64 %args.1) unnamed_addr #2 {
start:
  %_15 = alloca { ptr, i64 }, align 8
  %_13 = alloca { ptr, i64 }, align 8
  %_11 = alloca %"core::fmt::Arguments<'_>", align 8
  %_3 = icmp ult i64 %pieces.1, %args.1
  br i1 %_3, label %bb1, label %bb2

bb2:                                              ; preds = %start
  %_8 = add i64 %args.1, 1
  %_6 = icmp ugt i64 %pieces.1, %_8
  br i1 %_6, label %bb3, label %bb4

bb1:                                              ; preds = %start
  br label %bb3

bb4:                                              ; preds = %bb2
  store ptr null, ptr %_13, align 8
  %0 = getelementptr inbounds { ptr, i64 }, ptr %_0, i32 0, i32 0
  store ptr %pieces.0, ptr %0, align 8
  %1 = getelementptr inbounds { ptr, i64 }, ptr %_0, i32 0, i32 1
  store i64 %pieces.1, ptr %1, align 8
  %2 = getelementptr inbounds { ptr, i64 }, ptr %_13, i32 0, i32 0
  %3 = load ptr, ptr %2, align 8, !align !6, !noundef !5
  %4 = getelementptr inbounds { ptr, i64 }, ptr %_13, i32 0, i32 1
  %5 = load i64, ptr %4, align 8
  %6 = getelementptr inbounds %"core::fmt::Arguments<'_>", ptr %_0, i32 0, i32 2
  %7 = getelementptr inbounds { ptr, i64 }, ptr %6, i32 0, i32 0
  store ptr %3, ptr %7, align 8
  %8 = getelementptr inbounds { ptr, i64 }, ptr %6, i32 0, i32 1
  store i64 %5, ptr %8, align 8
  %9 = getelementptr inbounds %"core::fmt::Arguments<'_>", ptr %_0, i32 0, i32 1
  %10 = getelementptr inbounds { ptr, i64 }, ptr %9, i32 0, i32 0
  store ptr %args.0, ptr %10, align 8
  %11 = getelementptr inbounds { ptr, i64 }, ptr %9, i32 0, i32 1
  store i64 %args.1, ptr %11, align 8
  ret void

bb3:                                              ; preds = %bb1, %bb2
  store ptr null, ptr %_15, align 8
  %12 = getelementptr inbounds { ptr, i64 }, ptr %_11, i32 0, i32 0
  store ptr @alloc_560206a49c61adca6f3f0639a12632eb, ptr %12, align 8
  %13 = getelementptr inbounds { ptr, i64 }, ptr %_11, i32 0, i32 1
  store i64 1, ptr %13, align 8
  %14 = getelementptr inbounds { ptr, i64 }, ptr %_15, i32 0, i32 0
  %15 = load ptr, ptr %14, align 8, !align !6, !noundef !5
  %16 = getelementptr inbounds { ptr, i64 }, ptr %_15, i32 0, i32 1
  %17 = load i64, ptr %16, align 8
  %18 = getelementptr inbounds %"core::fmt::Arguments<'_>", ptr %_11, i32 0, i32 2
  %19 = getelementptr inbounds { ptr, i64 }, ptr %18, i32 0, i32 0
  store ptr %15, ptr %19, align 8
  %20 = getelementptr inbounds { ptr, i64 }, ptr %18, i32 0, i32 1
  store i64 %17, ptr %20, align 8
  %21 = getelementptr inbounds %"core::fmt::Arguments<'_>", ptr %_11, i32 0, i32 1
  %22 = getelementptr inbounds { ptr, i64 }, ptr %21, i32 0, i32 0
  store ptr @alloc_513570631223a12912d85da2bec3b15a, ptr %22, align 8
  %23 = getelementptr inbounds { ptr, i64 }, ptr %21, i32 0, i32 1
  store i64 0, ptr %23, align 8
; call core::panicking::panic_fmt
  call void @_ZN4core9panicking9panic_fmt17h16a1439d424583c1E(ptr align 8 %_11, ptr align 8 @alloc_1c56928eb97a57eeb8f9c7eda336d365) #7
  unreachable
}

; core::ops::function::FnOnce::call_once{{vtable.shim}}
; Function Attrs: inlinehint nonlazybind uwtable
define internal i32 @"_ZN4core3ops8function6FnOnce40call_once$u7b$$u7b$vtable.shim$u7d$$u7d$17h8dade2236dd012a9E"(ptr %_1) unnamed_addr #2 {
start:
  %_2 = alloca {}, align 1
  %0 = load ptr, ptr %_1, align 8, !nonnull !5, !noundef !5
; call core::ops::function::FnOnce::call_once
  %_0 = call i32 @_ZN4core3ops8function6FnOnce9call_once17hf4be7e50410a85bcE(ptr %0)
  ret i32 %_0
}

; core::ops::function::FnOnce::call_once
; Function Attrs: inlinehint nonlazybind uwtable
define internal void @_ZN4core3ops8function6FnOnce9call_once17hb674f4d9eb0df5bfE(ptr %_1) unnamed_addr #2 {
start:
  %_2 = alloca {}, align 1
  call void %_1()
  ret void
}

; core::ops::function::FnOnce::call_once
; Function Attrs: inlinehint nonlazybind uwtable
define internal i32 @_ZN4core3ops8function6FnOnce9call_once17hf4be7e50410a85bcE(ptr %0) unnamed_addr #2 personality ptr @rust_eh_personality {
start:
  %1 = alloca { ptr, i32 }, align 8
  %_2 = alloca {}, align 1
  %_1 = alloca ptr, align 8
  store ptr %0, ptr %_1, align 8
; invoke std::rt::lang_start::{{closure}}
  %_0 = invoke i32 @"_ZN3std2rt10lang_start28_$u7b$$u7b$closure$u7d$$u7d$17h1f9e92a4ec3ce5f0E"(ptr align 8 %_1)
          to label %bb1 unwind label %cleanup

bb3:                                              ; preds = %cleanup
  %2 = load ptr, ptr %1, align 8, !noundef !5
  %3 = getelementptr inbounds { ptr, i32 }, ptr %1, i32 0, i32 1
  %4 = load i32, ptr %3, align 8, !noundef !5
  %5 = insertvalue { ptr, i32 } poison, ptr %2, 0
  %6 = insertvalue { ptr, i32 } %5, i32 %4, 1
  resume { ptr, i32 } %6

cleanup:                                          ; preds = %start
  %7 = landingpad { ptr, i32 }
          cleanup
  %8 = extractvalue { ptr, i32 } %7, 0
  %9 = extractvalue { ptr, i32 } %7, 1
  %10 = getelementptr inbounds { ptr, i32 }, ptr %1, i32 0, i32 0
  store ptr %8, ptr %10, align 8
  %11 = getelementptr inbounds { ptr, i32 }, ptr %1, i32 0, i32 1
  store i32 %9, ptr %11, align 8
  br label %bb3

bb1:                                              ; preds = %start
  ret i32 %_0
}

; core::ptr::drop_in_place<std::rt::lang_start<()>::{{closure}}>
; Function Attrs: inlinehint nonlazybind uwtable
define internal void @"_ZN4core3ptr85drop_in_place$LT$std..rt..lang_start$LT$$LP$$RP$$GT$..$u7b$$u7b$closure$u7d$$u7d$$GT$17h0ab4a5561bf78c84E"(ptr align 8 %_1) unnamed_addr #2 {
start:
  ret void
}

; <() as std::process::Termination>::report
; Function Attrs: inlinehint nonlazybind uwtable
define internal i8 @"_ZN54_$LT$$LP$$RP$$u20$as$u20$std..process..Termination$GT$6report17h3d98925a36307cafE"() unnamed_addr #2 {
start:
  ret i8 0
}

; while_loop::main
; Function Attrs: nonlazybind uwtable
define internal void @_ZN10while_loop4main17he39b82eb366cf204E() unnamed_addr #1 {
start:
  %_0.i = alloca { ptr, ptr }, align 8
  %_8 = alloca [1 x { ptr, ptr }], align 8
  %_4 = alloca %"core::fmt::Arguments<'_>", align 8
  %c = alloca i32, align 4
  store i32 4, ptr %c, align 4
  br label %bb1

bb1:                                              ; preds = %bb6, %start
  %_2 = load i32, ptr %c, align 4, !noundef !5
  %0 = icmp eq i32 %_2, 0
  br i1 %0, label %bb7, label %bb2

bb7:                                              ; preds = %bb1
  ret void

bb2:                                              ; preds = %bb1
  store ptr %c, ptr %_0.i, align 8
  %1 = getelementptr inbounds { ptr, ptr }, ptr %_0.i, i32 0, i32 1
  store ptr @"_ZN4core3fmt3num3imp52_$LT$impl$u20$core..fmt..Display$u20$for$u20$i32$GT$3fmt17h5e0a766049816c9fE", ptr %1, align 8
  %2 = load ptr, ptr %_0.i, align 8, !nonnull !5, !align !7, !noundef !5
  %3 = getelementptr inbounds { ptr, ptr }, ptr %_0.i, i32 0, i32 1
  %4 = load ptr, ptr %3, align 8, !nonnull !5, !noundef !5
  %5 = insertvalue { ptr, ptr } poison, ptr %2, 0
  %6 = insertvalue { ptr, ptr } %5, ptr %4, 1
  %_9.0 = extractvalue { ptr, ptr } %6, 0
  %_9.1 = extractvalue { ptr, ptr } %6, 1
  %7 = getelementptr inbounds [1 x { ptr, ptr }], ptr %_8, i64 0, i64 0
  %8 = getelementptr inbounds { ptr, ptr }, ptr %7, i32 0, i32 0
  store ptr %_9.0, ptr %8, align 8
  %9 = getelementptr inbounds { ptr, ptr }, ptr %7, i32 0, i32 1
  store ptr %_9.1, ptr %9, align 8
; call core::fmt::Arguments::new_v1
  call void @_ZN4core3fmt9Arguments6new_v117h939ef316efd8ea8dE(ptr sret(%"core::fmt::Arguments<'_>") align 8 %_4, ptr align 8 @alloc_922fe7c1783e7fa968268afd1714605f, i64 2, ptr align 8 %_8, i64 1)
; call std::io::stdio::_print
  call void @_ZN3std2io5stdio6_print17h611ff38a98ac9ea1E(ptr align 8 %_4)
  %10 = load i32, ptr %c, align 4, !noundef !5
  %11 = call { i32, i1 } @llvm.ssub.with.overflow.i32(i32 %10, i32 1)
  %_11.0 = extractvalue { i32, i1 } %11, 0
  %_11.1 = extractvalue { i32, i1 } %11, 1
  %12 = call i1 @llvm.expect.i1(i1 %_11.1, i1 false)
  br i1 %12, label %panic, label %bb6

bb6:                                              ; preds = %bb2
  store i32 %_11.0, ptr %c, align 4
  br label %bb1

panic:                                            ; preds = %bb2
; call core::panicking::panic
  call void @_ZN4core9panicking5panic17h242592162912b9b5E(ptr align 1 @str.1, i64 33, ptr align 8 @alloc_87c33f45450d7c201b51c8fd67d95bb1) #7
  unreachable
}

; std::rt::lang_start_internal
; Function Attrs: nonlazybind uwtable
declare i64 @_ZN3std2rt19lang_start_internal17h3995343b9d112556E(ptr align 1, ptr align 8, i64, ptr, i8) unnamed_addr #1

; core::fmt::num::imp::<impl core::fmt::Display for i32>::fmt
; Function Attrs: nonlazybind uwtable
declare zeroext i1 @"_ZN4core3fmt3num3imp52_$LT$impl$u20$core..fmt..Display$u20$for$u20$i32$GT$3fmt17h5e0a766049816c9fE"(ptr align 4, ptr align 8) unnamed_addr #1

; core::panicking::panic_fmt
; Function Attrs: cold noinline noreturn nonlazybind uwtable
declare void @_ZN4core9panicking9panic_fmt17h16a1439d424583c1E(ptr align 8, ptr align 8) unnamed_addr #3

; Function Attrs: nonlazybind uwtable
declare i32 @rust_eh_personality(i32, i32, i64, ptr, ptr) unnamed_addr #1

; std::io::stdio::_print
; Function Attrs: nonlazybind uwtable
declare void @_ZN3std2io5stdio6_print17h611ff38a98ac9ea1E(ptr align 8) unnamed_addr #1

; Function Attrs: nocallback nofree nosync nounwind speculatable willreturn memory(none)
declare { i32, i1 } @llvm.ssub.with.overflow.i32(i32, i32) #4

; Function Attrs: nocallback nofree nosync nounwind willreturn memory(none)
declare i1 @llvm.expect.i1(i1, i1) #5

; core::panicking::panic
; Function Attrs: cold noinline noreturn nonlazybind uwtable
declare void @_ZN4core9panicking5panic17h242592162912b9b5E(ptr align 1, i64, ptr align 8) unnamed_addr #3

; Function Attrs: nonlazybind
define i32 @main(i32 %0, ptr %1) unnamed_addr #6 {
top:
  %2 = sext i32 %0 to i64
; call std::rt::lang_start
  %3 = call i64 @_ZN3std2rt10lang_start17h342fff3ed690143dE(ptr @_ZN10while_loop4main17he39b82eb366cf204E, i64 %2, ptr %1, i8 0)
  %4 = trunc i64 %3 to i32
  ret i32 %4
}

attributes #0 = { noinline nonlazybind uwtable "probe-stack"="inline-asm" "target-cpu"="x86-64" }
attributes #1 = { nonlazybind uwtable "probe-stack"="inline-asm" "target-cpu"="x86-64" }
attributes #2 = { inlinehint nonlazybind uwtable "probe-stack"="inline-asm" "target-cpu"="x86-64" }
attributes #3 = { cold noinline noreturn nonlazybind uwtable "probe-stack"="inline-asm" "target-cpu"="x86-64" }
attributes #4 = { nocallback nofree nosync nounwind speculatable willreturn memory(none) }
attributes #5 = { nocallback nofree nosync nounwind willreturn memory(none) }
attributes #6 = { nonlazybind "target-cpu"="x86-64" }
attributes #7 = { noreturn }

!llvm.module.flags = !{!0, !1, !2}
!llvm.ident = !{!3}

!0 = !{i32 8, !"PIC Level", i32 2}
!1 = !{i32 7, !"PIE Level", i32 2}
!2 = !{i32 2, !"RtLibUseGOT", i32 1}
!3 = !{!"rustc version 1.74.0-nightly (1e746d774 2023-09-07)"}
!4 = !{i32 1533300}
!5 = !{}
!6 = !{i64 8}
!7 = !{i64 1}
