; ModuleID = 'if_then_else.4d35aa448865b21-cgu.0'
source_filename = "if_then_else.4d35aa448865b21-cgu.0"
target datalayout = "e-m:e-p270:32:32-p271:32:32-p272:64:64-i64:64-f80:128-n8:16:32:64-S128"
target triple = "x86_64-unknown-linux-gnu"

%"core::fmt::Arguments<'_>" = type { { ptr, i64 }, { ptr, i64 }, { ptr, i64 } }

@vtable.0 = private unnamed_addr constant <{ ptr, [16 x i8], ptr, ptr, ptr }> <{ ptr @"_ZN4core3ptr85drop_in_place$LT$std..rt..lang_start$LT$$LP$$RP$$GT$..$u7b$$u7b$closure$u7d$$u7d$$GT$17h61f8dccb3c4e42f5E", [16 x i8] c"\08\00\00\00\00\00\00\00\08\00\00\00\00\00\00\00", ptr @"_ZN4core3ops8function6FnOnce40call_once$u7b$$u7b$vtable.shim$u7d$$u7d$17hb2bdb4a491625576E", ptr @"_ZN3std2rt10lang_start28_$u7b$$u7b$closure$u7d$$u7d$17hee0394a53a0b47faE", ptr @"_ZN3std2rt10lang_start28_$u7b$$u7b$closure$u7d$$u7d$17hee0394a53a0b47faE" }>, align 8
@alloc_513570631223a12912d85da2bec3b15a = private unnamed_addr constant <{}> zeroinitializer, align 8
@alloc_91c7fa63c3cfeaa3c795652d5cf060e4 = private unnamed_addr constant <{ [12 x i8] }> <{ [12 x i8] c"invalid args" }>, align 1
@alloc_560206a49c61adca6f3f0639a12632eb = private unnamed_addr constant <{ ptr, [8 x i8] }> <{ ptr @alloc_91c7fa63c3cfeaa3c795652d5cf060e4, [8 x i8] c"\0C\00\00\00\00\00\00\00" }>, align 8
@alloc_1e0228a93ca3165ad44cd64ff86e557a = private unnamed_addr constant <{ [75 x i8] }> <{ [75 x i8] c"/rustc/1e746d7741d44551e9378daf13b8797322aa0b74/library/core/src/fmt/mod.rs" }>, align 1
@alloc_107a2ee16974a68bbe676ea4e96d3003 = private unnamed_addr constant <{ ptr, [16 x i8] }> <{ ptr @alloc_1e0228a93ca3165ad44cd64ff86e557a, [16 x i8] c"K\00\00\00\00\00\00\00+\01\00\00\0D\00\00\00" }>, align 8
@alloc_391c55f12860f864cb8bea33e700e4d8 = private unnamed_addr constant <{ [18 x i8] }> <{ [18 x i8] c"True is not false\0A" }>, align 1
@alloc_c01d9b210ed40de7617a105008711c58 = private unnamed_addr constant <{ ptr, [8 x i8] }> <{ ptr @alloc_391c55f12860f864cb8bea33e700e4d8, [8 x i8] c"\12\00\00\00\00\00\00\00" }>, align 8
@alloc_2f28231d371bb1d559a5fbb8054cf88c = private unnamed_addr constant <{ [14 x i8] }> <{ [14 x i8] c"True is false\0A" }>, align 1
@alloc_7e0ba29a8e2ed72e1723383820541eac = private unnamed_addr constant <{ ptr, [8 x i8] }> <{ ptr @alloc_2f28231d371bb1d559a5fbb8054cf88c, [8 x i8] c"\0E\00\00\00\00\00\00\00" }>, align 8

; std::sys_common::backtrace::__rust_begin_short_backtrace
; Function Attrs: noinline nonlazybind uwtable
define internal void @_ZN3std10sys_common9backtrace28__rust_begin_short_backtrace17hcb81912c2074dd01E(ptr %f) unnamed_addr #0 {
start:
; call core::ops::function::FnOnce::call_once
  call void @_ZN4core3ops8function6FnOnce9call_once17h12492ebc3a2faa5eE(ptr %f)
  call void asm sideeffect "", "~{memory}"(), !srcloc !4
  ret void
}

; std::rt::lang_start
; Function Attrs: nonlazybind uwtable
define hidden i64 @_ZN3std2rt10lang_start17h638a2ff9fc88dbbdE(ptr %main, i64 %argc, ptr %argv, i8 %sigpipe) unnamed_addr #1 {
start:
  %_8 = alloca ptr, align 8
  %_5 = alloca i64, align 8
  store ptr %main, ptr %_8, align 8
; call std::rt::lang_start_internal
  %0 = call i64 @_ZN3std2rt19lang_start_internal17h3995343b9d112556E(ptr align 1 %_8, ptr align 8 @vtable.0, i64 %argc, ptr %argv, i8 %sigpipe)
  store i64 %0, ptr %_5, align 8
  %v = load i64, ptr %_5, align 8, !noundef !5
  ret i64 %v
}

; std::rt::lang_start::{{closure}}
; Function Attrs: inlinehint nonlazybind uwtable
define internal i32 @"_ZN3std2rt10lang_start28_$u7b$$u7b$closure$u7d$$u7d$17hee0394a53a0b47faE"(ptr align 8 %_1) unnamed_addr #2 {
start:
  %_4 = load ptr, ptr %_1, align 8, !nonnull !5, !noundef !5
; call std::sys_common::backtrace::__rust_begin_short_backtrace
  call void @_ZN3std10sys_common9backtrace28__rust_begin_short_backtrace17hcb81912c2074dd01E(ptr %_4)
; call <() as std::process::Termination>::report
  %self = call i8 @"_ZN54_$LT$$LP$$RP$$u20$as$u20$std..process..Termination$GT$6report17ha2fb6f63249abfc9E"()
  %_0 = zext i8 %self to i32
  ret i32 %_0
}

; core::fmt::Arguments::new_const
; Function Attrs: inlinehint nonlazybind uwtable
define internal void @_ZN4core3fmt9Arguments9new_const17h71f4df6fd50c8940E(ptr sret(%"core::fmt::Arguments<'_>") align 8 %_0, ptr align 8 %pieces.0, i64 %pieces.1) unnamed_addr #2 {
start:
  %_7 = alloca { ptr, i64 }, align 8
  %_5 = alloca %"core::fmt::Arguments<'_>", align 8
  %_2 = icmp ugt i64 %pieces.1, 1
  br i1 %_2, label %bb1, label %bb3

bb3:                                              ; preds = %start
  store ptr null, ptr %_7, align 8
  %0 = getelementptr inbounds { ptr, i64 }, ptr %_0, i32 0, i32 0
  store ptr %pieces.0, ptr %0, align 8
  %1 = getelementptr inbounds { ptr, i64 }, ptr %_0, i32 0, i32 1
  store i64 %pieces.1, ptr %1, align 8
  %2 = getelementptr inbounds { ptr, i64 }, ptr %_7, i32 0, i32 0
  %3 = load ptr, ptr %2, align 8, !align !6, !noundef !5
  %4 = getelementptr inbounds { ptr, i64 }, ptr %_7, i32 0, i32 1
  %5 = load i64, ptr %4, align 8
  %6 = getelementptr inbounds %"core::fmt::Arguments<'_>", ptr %_0, i32 0, i32 2
  %7 = getelementptr inbounds { ptr, i64 }, ptr %6, i32 0, i32 0
  store ptr %3, ptr %7, align 8
  %8 = getelementptr inbounds { ptr, i64 }, ptr %6, i32 0, i32 1
  store i64 %5, ptr %8, align 8
  %9 = getelementptr inbounds %"core::fmt::Arguments<'_>", ptr %_0, i32 0, i32 1
  %10 = getelementptr inbounds { ptr, i64 }, ptr %9, i32 0, i32 0
  store ptr @alloc_513570631223a12912d85da2bec3b15a, ptr %10, align 8
  %11 = getelementptr inbounds { ptr, i64 }, ptr %9, i32 0, i32 1
  store i64 0, ptr %11, align 8
  ret void

bb1:                                              ; preds = %start
; call core::fmt::Arguments::new_const
  call void @_ZN4core3fmt9Arguments9new_const17h71f4df6fd50c8940E(ptr sret(%"core::fmt::Arguments<'_>") align 8 %_5, ptr align 8 @alloc_560206a49c61adca6f3f0639a12632eb, i64 1)
; call core::panicking::panic_fmt
  call void @_ZN4core9panicking9panic_fmt17h16a1439d424583c1E(ptr align 8 %_5, ptr align 8 @alloc_107a2ee16974a68bbe676ea4e96d3003) #5
  unreachable
}

; core::ops::function::FnOnce::call_once{{vtable.shim}}
; Function Attrs: inlinehint nonlazybind uwtable
define internal i32 @"_ZN4core3ops8function6FnOnce40call_once$u7b$$u7b$vtable.shim$u7d$$u7d$17hb2bdb4a491625576E"(ptr %_1) unnamed_addr #2 {
start:
  %_2 = alloca {}, align 1
  %0 = load ptr, ptr %_1, align 8, !nonnull !5, !noundef !5
; call core::ops::function::FnOnce::call_once
  %_0 = call i32 @_ZN4core3ops8function6FnOnce9call_once17he9a3c12f677e7d1aE(ptr %0)
  ret i32 %_0
}

; core::ops::function::FnOnce::call_once
; Function Attrs: inlinehint nonlazybind uwtable
define internal void @_ZN4core3ops8function6FnOnce9call_once17h12492ebc3a2faa5eE(ptr %_1) unnamed_addr #2 {
start:
  %_2 = alloca {}, align 1
  call void %_1()
  ret void
}

; core::ops::function::FnOnce::call_once
; Function Attrs: inlinehint nonlazybind uwtable
define internal i32 @_ZN4core3ops8function6FnOnce9call_once17he9a3c12f677e7d1aE(ptr %0) unnamed_addr #2 personality ptr @rust_eh_personality {
start:
  %1 = alloca { ptr, i32 }, align 8
  %_2 = alloca {}, align 1
  %_1 = alloca ptr, align 8
  store ptr %0, ptr %_1, align 8
; invoke std::rt::lang_start::{{closure}}
  %_0 = invoke i32 @"_ZN3std2rt10lang_start28_$u7b$$u7b$closure$u7d$$u7d$17hee0394a53a0b47faE"(ptr align 8 %_1)
          to label %bb1 unwind label %cleanup

bb3:                                              ; preds = %cleanup
  %2 = load ptr, ptr %1, align 8, !noundef !5
  %3 = getelementptr inbounds { ptr, i32 }, ptr %1, i32 0, i32 1
  %4 = load i32, ptr %3, align 8, !noundef !5
  %5 = insertvalue { ptr, i32 } poison, ptr %2, 0
  %6 = insertvalue { ptr, i32 } %5, i32 %4, 1
  resume { ptr, i32 } %6

cleanup:                                          ; preds = %start
  %7 = landingpad { ptr, i32 }
          cleanup
  %8 = extractvalue { ptr, i32 } %7, 0
  %9 = extractvalue { ptr, i32 } %7, 1
  %10 = getelementptr inbounds { ptr, i32 }, ptr %1, i32 0, i32 0
  store ptr %8, ptr %10, align 8
  %11 = getelementptr inbounds { ptr, i32 }, ptr %1, i32 0, i32 1
  store i32 %9, ptr %11, align 8
  br label %bb3

bb1:                                              ; preds = %start
  ret i32 %_0
}

; core::ptr::drop_in_place<std::rt::lang_start<()>::{{closure}}>
; Function Attrs: inlinehint nonlazybind uwtable
define internal void @"_ZN4core3ptr85drop_in_place$LT$std..rt..lang_start$LT$$LP$$RP$$GT$..$u7b$$u7b$closure$u7d$$u7d$$GT$17h61f8dccb3c4e42f5E"(ptr align 8 %_1) unnamed_addr #2 {
start:
  ret void
}

; <() as std::process::Termination>::report
; Function Attrs: inlinehint nonlazybind uwtable
define internal i8 @"_ZN54_$LT$$LP$$RP$$u20$as$u20$std..process..Termination$GT$6report17ha2fb6f63249abfc9E"() unnamed_addr #2 {
start:
  ret i8 0
}

; if_then_else::main
; Function Attrs: nonlazybind uwtable
define internal void @_ZN12if_then_else4main17h04b4afbacc3cc34cE() unnamed_addr #1 {
start:
  %_8 = alloca %"core::fmt::Arguments<'_>", align 8
  %_5 = alloca %"core::fmt::Arguments<'_>", align 8
  br i1 false, label %bb1, label %bb3

bb3:                                              ; preds = %start
; call core::fmt::Arguments::new_const
  call void @_ZN4core3fmt9Arguments9new_const17h71f4df6fd50c8940E(ptr sret(%"core::fmt::Arguments<'_>") align 8 %_8, ptr align 8 @alloc_c01d9b210ed40de7617a105008711c58, i64 1)
; call std::io::stdio::_print
  call void @_ZN3std2io5stdio6_print17h611ff38a98ac9ea1E(ptr align 8 %_8)
  br label %bb5

bb1:                                              ; preds = %start
; call core::fmt::Arguments::new_const
  call void @_ZN4core3fmt9Arguments9new_const17h71f4df6fd50c8940E(ptr sret(%"core::fmt::Arguments<'_>") align 8 %_5, ptr align 8 @alloc_7e0ba29a8e2ed72e1723383820541eac, i64 1)
; call std::io::stdio::_print
  call void @_ZN3std2io5stdio6_print17h611ff38a98ac9ea1E(ptr align 8 %_5)
  br label %bb5

bb5:                                              ; preds = %bb1, %bb3
  ret void
}

; std::rt::lang_start_internal
; Function Attrs: nonlazybind uwtable
declare i64 @_ZN3std2rt19lang_start_internal17h3995343b9d112556E(ptr align 1, ptr align 8, i64, ptr, i8) unnamed_addr #1

; core::panicking::panic_fmt
; Function Attrs: cold noinline noreturn nonlazybind uwtable
declare void @_ZN4core9panicking9panic_fmt17h16a1439d424583c1E(ptr align 8, ptr align 8) unnamed_addr #3

; Function Attrs: nonlazybind uwtable
declare i32 @rust_eh_personality(i32, i32, i64, ptr, ptr) unnamed_addr #1

; std::io::stdio::_print
; Function Attrs: nonlazybind uwtable
declare void @_ZN3std2io5stdio6_print17h611ff38a98ac9ea1E(ptr align 8) unnamed_addr #1

; Function Attrs: nonlazybind
define i32 @main(i32 %0, ptr %1) unnamed_addr #4 {
top:
  %2 = sext i32 %0 to i64
; call std::rt::lang_start
  %3 = call i64 @_ZN3std2rt10lang_start17h638a2ff9fc88dbbdE(ptr @_ZN12if_then_else4main17h04b4afbacc3cc34cE, i64 %2, ptr %1, i8 0)
  %4 = trunc i64 %3 to i32
  ret i32 %4
}

attributes #0 = { noinline nonlazybind uwtable "probe-stack"="inline-asm" "target-cpu"="x86-64" }
attributes #1 = { nonlazybind uwtable "probe-stack"="inline-asm" "target-cpu"="x86-64" }
attributes #2 = { inlinehint nonlazybind uwtable "probe-stack"="inline-asm" "target-cpu"="x86-64" }
attributes #3 = { cold noinline noreturn nonlazybind uwtable "probe-stack"="inline-asm" "target-cpu"="x86-64" }
attributes #4 = { nonlazybind "target-cpu"="x86-64" }
attributes #5 = { noreturn }

!llvm.module.flags = !{!0, !1, !2}
!llvm.ident = !{!3}

!0 = !{i32 8, !"PIC Level", i32 2}
!1 = !{i32 7, !"PIE Level", i32 2}
!2 = !{i32 2, !"RtLibUseGOT", i32 1}
!3 = !{!"rustc version 1.74.0-nightly (1e746d774 2023-09-07)"}
!4 = !{i32 1474064}
!5 = !{}
!6 = !{i64 8}
