; ModuleID = 'struct_usage.14e2cd8125f1828e-cgu.0'
source_filename = "struct_usage.14e2cd8125f1828e-cgu.0"
target datalayout = "e-m:e-p270:32:32-p271:32:32-p272:64:64-i64:64-f80:128-n8:16:32:64-S128"
target triple = "x86_64-unknown-linux-gnu"

%User = type { %"alloc::string::String", %"alloc::string::String", i64, i8, [7 x i8] }
%"alloc::string::String" = type { %"alloc::vec::Vec<u8>" }
%"alloc::vec::Vec<u8>" = type { { ptr, i64 }, i64 }
%"core::ptr::metadata::PtrRepr<[u8]>" = type { [2 x i64] }
%"alloc::alloc::Global" = type {}
%"core::option::Option<(core::ptr::non_null::NonNull<u8>, core::alloc::layout::Layout)>" = type { [1 x i64], i64, [1 x i64] }

@vtable.0 = private unnamed_addr constant <{ ptr, [16 x i8], ptr, ptr, ptr }> <{ ptr @"_ZN4core3ptr85drop_in_place$LT$std..rt..lang_start$LT$$LP$$RP$$GT$..$u7b$$u7b$closure$u7d$$u7d$$GT$17h8a6674ba0ea9c090E", [16 x i8] c"\08\00\00\00\00\00\00\00\08\00\00\00\00\00\00\00", ptr @"_ZN4core3ops8function6FnOnce40call_once$u7b$$u7b$vtable.shim$u7d$$u7d$17hddcdb57c7c3c6965E", ptr @"_ZN3std2rt10lang_start28_$u7b$$u7b$closure$u7d$$u7d$17hfe55ec8c9b64a620E", ptr @"_ZN3std2rt10lang_start28_$u7b$$u7b$closure$u7d$$u7d$17hfe55ec8c9b64a620E" }>, align 8
@alloc_49c5ec6af4d3679ae1badb36f6b22bdf = private unnamed_addr constant <{ [80 x i8] }> <{ [80 x i8] c"/rustc/1e746d7741d44551e9378daf13b8797322aa0b74/library/core/src/alloc/layout.rs" }>, align 1
@alloc_2f2ff7553174daa6c164348fb6c1b5dc = private unnamed_addr constant <{ ptr, [16 x i8] }> <{ ptr @alloc_49c5ec6af4d3679ae1badb36f6b22bdf, [16 x i8] c"P\00\00\00\00\00\00\00\BF\01\00\00)\00\00\00" }>, align 8
@str.1 = internal constant [25 x i8] c"attempt to divide by zero"
@__rust_no_alloc_shim_is_unstable = external global i8
@alloc_98b490750177828e02204b4945c616c9 = private unnamed_addr constant <{ [19 x i8] }> <{ [19 x i8] c"someone@example.com" }>, align 1
@alloc_ae9624a8a03bf54078d71818e8ae9e83 = private unnamed_addr constant <{ [15 x i8] }> <{ [15 x i8] c"someusername123" }>, align 1
@alloc_9b192103b087c498b823dc2c756be167 = private unnamed_addr constant <{ [19 x i8] }> <{ [19 x i8] c"another@example.com" }>, align 1
@alloc_53e59ec1a43a7e31ac99ea0b5b0b1728 = private unnamed_addr constant <{ [18 x i8] }> <{ [18 x i8] c"anotherusername567" }>, align 1

; std::sys_common::backtrace::__rust_begin_short_backtrace
; Function Attrs: noinline nonlazybind uwtable
define internal void @_ZN3std10sys_common9backtrace28__rust_begin_short_backtrace17hafb38b6481f1442eE(ptr %f) unnamed_addr #0 {
start:
; call core::ops::function::FnOnce::call_once
  call void @_ZN4core3ops8function6FnOnce9call_once17he66eda1fcd25bd35E(ptr %f)
  call void asm sideeffect "", "~{memory}"(), !srcloc !4
  ret void
}

; std::rt::lang_start
; Function Attrs: nonlazybind uwtable
define hidden i64 @_ZN3std2rt10lang_start17h669152d41b95aad8E(ptr %main, i64 %argc, ptr %argv, i8 %sigpipe) unnamed_addr #1 {
start:
  %_8 = alloca ptr, align 8
  %_5 = alloca i64, align 8
  store ptr %main, ptr %_8, align 8
; call std::rt::lang_start_internal
  %0 = call i64 @_ZN3std2rt19lang_start_internal17h3995343b9d112556E(ptr align 1 %_8, ptr align 8 @vtable.0, i64 %argc, ptr %argv, i8 %sigpipe)
  store i64 %0, ptr %_5, align 8
  %v = load i64, ptr %_5, align 8, !noundef !5
  ret i64 %v
}

; std::rt::lang_start::{{closure}}
; Function Attrs: inlinehint nonlazybind uwtable
define internal i32 @"_ZN3std2rt10lang_start28_$u7b$$u7b$closure$u7d$$u7d$17hfe55ec8c9b64a620E"(ptr align 8 %_1) unnamed_addr #2 {
start:
  %_4 = load ptr, ptr %_1, align 8, !nonnull !5, !noundef !5
; call std::sys_common::backtrace::__rust_begin_short_backtrace
  call void @_ZN3std10sys_common9backtrace28__rust_begin_short_backtrace17hafb38b6481f1442eE(ptr %_4)
; call <() as std::process::Termination>::report
  %self = call i8 @"_ZN54_$LT$$LP$$RP$$u20$as$u20$std..process..Termination$GT$6report17he2920b34e78c5d53E"()
  %_0 = zext i8 %self to i32
  ret i32 %_0
}

; core::ops::function::FnOnce::call_once{{vtable.shim}}
; Function Attrs: inlinehint nonlazybind uwtable
define internal i32 @"_ZN4core3ops8function6FnOnce40call_once$u7b$$u7b$vtable.shim$u7d$$u7d$17hddcdb57c7c3c6965E"(ptr %_1) unnamed_addr #2 {
start:
  %_2 = alloca {}, align 1
  %0 = load ptr, ptr %_1, align 8, !nonnull !5, !noundef !5
; call core::ops::function::FnOnce::call_once
  %_0 = call i32 @_ZN4core3ops8function6FnOnce9call_once17h77d7e00526c706e7E(ptr %0)
  ret i32 %_0
}

; core::ops::function::FnOnce::call_once
; Function Attrs: inlinehint nonlazybind uwtable
define internal i32 @_ZN4core3ops8function6FnOnce9call_once17h77d7e00526c706e7E(ptr %0) unnamed_addr #2 personality ptr @rust_eh_personality {
start:
  %1 = alloca { ptr, i32 }, align 8
  %_2 = alloca {}, align 1
  %_1 = alloca ptr, align 8
  store ptr %0, ptr %_1, align 8
; invoke std::rt::lang_start::{{closure}}
  %_0 = invoke i32 @"_ZN3std2rt10lang_start28_$u7b$$u7b$closure$u7d$$u7d$17hfe55ec8c9b64a620E"(ptr align 8 %_1)
          to label %bb1 unwind label %cleanup

bb3:                                              ; preds = %cleanup
  %2 = load ptr, ptr %1, align 8, !noundef !5
  %3 = getelementptr inbounds { ptr, i32 }, ptr %1, i32 0, i32 1
  %4 = load i32, ptr %3, align 8, !noundef !5
  %5 = insertvalue { ptr, i32 } poison, ptr %2, 0
  %6 = insertvalue { ptr, i32 } %5, i32 %4, 1
  resume { ptr, i32 } %6

cleanup:                                          ; preds = %start
  %7 = landingpad { ptr, i32 }
          cleanup
  %8 = extractvalue { ptr, i32 } %7, 0
  %9 = extractvalue { ptr, i32 } %7, 1
  %10 = getelementptr inbounds { ptr, i32 }, ptr %1, i32 0, i32 0
  store ptr %8, ptr %10, align 8
  %11 = getelementptr inbounds { ptr, i32 }, ptr %1, i32 0, i32 1
  store i32 %9, ptr %11, align 8
  br label %bb3

bb1:                                              ; preds = %start
  ret i32 %_0
}

; core::ops::function::FnOnce::call_once
; Function Attrs: inlinehint nonlazybind uwtable
define internal void @_ZN4core3ops8function6FnOnce9call_once17he66eda1fcd25bd35E(ptr %_1) unnamed_addr #2 {
start:
  %_2 = alloca {}, align 1
  call void %_1()
  ret void
}

; core::ptr::drop_in_place<struct_usage::User>
; Function Attrs: nonlazybind uwtable
define internal void @"_ZN4core3ptr39drop_in_place$LT$struct_usage..User$GT$17h794f9338fba1adfcE"(ptr align 8 %_1) unnamed_addr #1 personality ptr @rust_eh_personality {
start:
  %0 = alloca { ptr, i32 }, align 8
; invoke core::ptr::drop_in_place<alloc::string::String>
  invoke void @"_ZN4core3ptr42drop_in_place$LT$alloc..string..String$GT$17h5b76beccd88832b8E"(ptr align 8 %_1)
          to label %bb4 unwind label %cleanup

bb3:                                              ; preds = %cleanup
  %1 = getelementptr inbounds %User, ptr %_1, i32 0, i32 1
; invoke core::ptr::drop_in_place<alloc::string::String>
  invoke void @"_ZN4core3ptr42drop_in_place$LT$alloc..string..String$GT$17h5b76beccd88832b8E"(ptr align 8 %1) #14
          to label %bb1 unwind label %terminate

cleanup:                                          ; preds = %start
  %2 = landingpad { ptr, i32 }
          cleanup
  %3 = extractvalue { ptr, i32 } %2, 0
  %4 = extractvalue { ptr, i32 } %2, 1
  %5 = getelementptr inbounds { ptr, i32 }, ptr %0, i32 0, i32 0
  store ptr %3, ptr %5, align 8
  %6 = getelementptr inbounds { ptr, i32 }, ptr %0, i32 0, i32 1
  store i32 %4, ptr %6, align 8
  br label %bb3

bb4:                                              ; preds = %start
  %7 = getelementptr inbounds %User, ptr %_1, i32 0, i32 1
; call core::ptr::drop_in_place<alloc::string::String>
  call void @"_ZN4core3ptr42drop_in_place$LT$alloc..string..String$GT$17h5b76beccd88832b8E"(ptr align 8 %7)
  ret void

terminate:                                        ; preds = %bb3
  %8 = landingpad { ptr, i32 }
          filter [0 x ptr] zeroinitializer
  %9 = extractvalue { ptr, i32 } %8, 0
  %10 = extractvalue { ptr, i32 } %8, 1
; call core::panicking::panic_in_cleanup
  call void @_ZN4core9panicking16panic_in_cleanup17h0c7fb62f204ce488E() #15
  unreachable

bb1:                                              ; preds = %bb3
  %11 = load ptr, ptr %0, align 8, !noundef !5
  %12 = getelementptr inbounds { ptr, i32 }, ptr %0, i32 0, i32 1
  %13 = load i32, ptr %12, align 8, !noundef !5
  %14 = insertvalue { ptr, i32 } poison, ptr %11, 0
  %15 = insertvalue { ptr, i32 } %14, i32 %13, 1
  resume { ptr, i32 } %15
}

; core::ptr::drop_in_place<alloc::string::String>
; Function Attrs: nonlazybind uwtable
define internal void @"_ZN4core3ptr42drop_in_place$LT$alloc..string..String$GT$17h5b76beccd88832b8E"(ptr align 8 %_1) unnamed_addr #1 {
start:
; call core::ptr::drop_in_place<alloc::vec::Vec<u8>>
  call void @"_ZN4core3ptr46drop_in_place$LT$alloc..vec..Vec$LT$u8$GT$$GT$17h8bcfb953840d4087E"(ptr align 8 %_1)
  ret void
}

; core::ptr::drop_in_place<alloc::vec::Vec<u8>>
; Function Attrs: nonlazybind uwtable
define internal void @"_ZN4core3ptr46drop_in_place$LT$alloc..vec..Vec$LT$u8$GT$$GT$17h8bcfb953840d4087E"(ptr align 8 %_1) unnamed_addr #1 personality ptr @rust_eh_personality {
start:
  %0 = alloca { ptr, i32 }, align 8
; invoke <alloc::vec::Vec<T,A> as core::ops::drop::Drop>::drop
  invoke void @"_ZN70_$LT$alloc..vec..Vec$LT$T$C$A$GT$$u20$as$u20$core..ops..drop..Drop$GT$4drop17h6fc88c17303a79beE"(ptr align 8 %_1)
          to label %bb4 unwind label %cleanup

bb3:                                              ; preds = %cleanup
; invoke core::ptr::drop_in_place<alloc::raw_vec::RawVec<u8>>
  invoke void @"_ZN4core3ptr53drop_in_place$LT$alloc..raw_vec..RawVec$LT$u8$GT$$GT$17h889fdfd4048027a8E"(ptr align 8 %_1) #14
          to label %bb1 unwind label %terminate

cleanup:                                          ; preds = %start
  %1 = landingpad { ptr, i32 }
          cleanup
  %2 = extractvalue { ptr, i32 } %1, 0
  %3 = extractvalue { ptr, i32 } %1, 1
  %4 = getelementptr inbounds { ptr, i32 }, ptr %0, i32 0, i32 0
  store ptr %2, ptr %4, align 8
  %5 = getelementptr inbounds { ptr, i32 }, ptr %0, i32 0, i32 1
  store i32 %3, ptr %5, align 8
  br label %bb3

bb4:                                              ; preds = %start
; call core::ptr::drop_in_place<alloc::raw_vec::RawVec<u8>>
  call void @"_ZN4core3ptr53drop_in_place$LT$alloc..raw_vec..RawVec$LT$u8$GT$$GT$17h889fdfd4048027a8E"(ptr align 8 %_1)
  ret void

terminate:                                        ; preds = %bb3
  %6 = landingpad { ptr, i32 }
          filter [0 x ptr] zeroinitializer
  %7 = extractvalue { ptr, i32 } %6, 0
  %8 = extractvalue { ptr, i32 } %6, 1
; call core::panicking::panic_in_cleanup
  call void @_ZN4core9panicking16panic_in_cleanup17h0c7fb62f204ce488E() #15
  unreachable

bb1:                                              ; preds = %bb3
  %9 = load ptr, ptr %0, align 8, !noundef !5
  %10 = getelementptr inbounds { ptr, i32 }, ptr %0, i32 0, i32 1
  %11 = load i32, ptr %10, align 8, !noundef !5
  %12 = insertvalue { ptr, i32 } poison, ptr %9, 0
  %13 = insertvalue { ptr, i32 } %12, i32 %11, 1
  resume { ptr, i32 } %13
}

; core::ptr::drop_in_place<alloc::raw_vec::RawVec<u8>>
; Function Attrs: nonlazybind uwtable
define internal void @"_ZN4core3ptr53drop_in_place$LT$alloc..raw_vec..RawVec$LT$u8$GT$$GT$17h889fdfd4048027a8E"(ptr align 8 %_1) unnamed_addr #1 {
start:
; call <alloc::raw_vec::RawVec<T,A> as core::ops::drop::Drop>::drop
  call void @"_ZN77_$LT$alloc..raw_vec..RawVec$LT$T$C$A$GT$$u20$as$u20$core..ops..drop..Drop$GT$4drop17h3ab855d7c8e00673E"(ptr align 8 %_1)
  ret void
}

; core::ptr::drop_in_place<std::rt::lang_start<()>::{{closure}}>
; Function Attrs: inlinehint nonlazybind uwtable
define internal void @"_ZN4core3ptr85drop_in_place$LT$std..rt..lang_start$LT$$LP$$RP$$GT$..$u7b$$u7b$closure$u7d$$u7d$$GT$17h8a6674ba0ea9c090E"(ptr align 8 %_1) unnamed_addr #2 {
start:
  ret void
}

; core::alloc::layout::Layout::array::inner
; Function Attrs: inlinehint nonlazybind uwtable
define internal { i64, i64 } @_ZN4core5alloc6layout6Layout5array5inner17h39f29352b4dccbedE(i64 %element_size, i64 %align, i64 %n) unnamed_addr #2 {
start:
  %_18 = alloca i64, align 8
  %_13 = alloca i64, align 8
  %_9 = alloca { i64, i64 }, align 8
  %_0 = alloca { i64, i64 }, align 8
  %0 = icmp eq i64 %element_size, 0
  br i1 %0, label %bb5, label %bb1

bb5:                                              ; preds = %bb4, %start
  %array_size = mul i64 %element_size, %n
  store i64 %align, ptr %_18, align 8
  %_19 = load i64, ptr %_18, align 8, !range !6, !noundef !5
  %_20 = icmp uge i64 %_19, 1
  %_21 = icmp ule i64 %_19, -9223372036854775808
  %_22 = and i1 %_20, %_21
  call void @llvm.assume(i1 %_22)
  %1 = getelementptr inbounds { i64, i64 }, ptr %_9, i32 0, i32 1
  store i64 %array_size, ptr %1, align 8
  store i64 %_19, ptr %_9, align 8
  %2 = getelementptr inbounds { i64, i64 }, ptr %_9, i32 0, i32 0
  %3 = load i64, ptr %2, align 8, !range !6, !noundef !5
  %4 = getelementptr inbounds { i64, i64 }, ptr %_9, i32 0, i32 1
  %5 = load i64, ptr %4, align 8, !noundef !5
  %6 = getelementptr inbounds { i64, i64 }, ptr %_0, i32 0, i32 0
  store i64 %3, ptr %6, align 8
  %7 = getelementptr inbounds { i64, i64 }, ptr %_0, i32 0, i32 1
  store i64 %5, ptr %7, align 8
  br label %bb6

bb1:                                              ; preds = %start
  store i64 %align, ptr %_13, align 8
  %_14 = load i64, ptr %_13, align 8, !range !6, !noundef !5
  %_15 = icmp uge i64 %_14, 1
  %_16 = icmp ule i64 %_14, -9223372036854775808
  %_17 = and i1 %_15, %_16
  call void @llvm.assume(i1 %_17)
  %_11 = sub i64 %_14, 1
  %_6 = sub i64 9223372036854775807, %_11
  %_7 = icmp eq i64 %element_size, 0
  %8 = call i1 @llvm.expect.i1(i1 %_7, i1 false)
  br i1 %8, label %panic, label %bb2

bb2:                                              ; preds = %bb1
  %_5 = udiv i64 %_6, %element_size
  %_4 = icmp ugt i64 %n, %_5
  br i1 %_4, label %bb3, label %bb4

panic:                                            ; preds = %bb1
; call core::panicking::panic
  call void @_ZN4core9panicking5panic17h242592162912b9b5E(ptr align 1 @str.1, i64 25, ptr align 8 @alloc_2f2ff7553174daa6c164348fb6c1b5dc) #16
  unreachable

bb4:                                              ; preds = %bb2
  br label %bb5

bb3:                                              ; preds = %bb2
  store i64 0, ptr %_0, align 8
  br label %bb6

bb6:                                              ; preds = %bb3, %bb5
  %9 = getelementptr inbounds { i64, i64 }, ptr %_0, i32 0, i32 0
  %10 = load i64, ptr %9, align 8, !range !7, !noundef !5
  %11 = getelementptr inbounds { i64, i64 }, ptr %_0, i32 0, i32 1
  %12 = load i64, ptr %11, align 8
  %13 = insertvalue { i64, i64 } poison, i64 %10, 0
  %14 = insertvalue { i64, i64 } %13, i64 %12, 1
  ret { i64, i64 } %14
}

; <T as alloc::slice::hack::ConvertVec>::to_vec
; Function Attrs: inlinehint nonlazybind uwtable
define internal void @"_ZN52_$LT$T$u20$as$u20$alloc..slice..hack..ConvertVec$GT$6to_vec17h2c889545f7661458E"(ptr sret(%"alloc::vec::Vec<u8>") align 8 %_0, ptr align 1 %s.0, i64 %s.1) unnamed_addr #2 personality ptr @rust_eh_personality {
start:
  %0 = alloca { ptr, i32 }, align 8
  %v = alloca %"alloc::vec::Vec<u8>", align 8
; invoke alloc::raw_vec::RawVec<T,A>::allocate_in
  %1 = invoke { ptr, i64 } @"_ZN5alloc7raw_vec19RawVec$LT$T$C$A$GT$11allocate_in17hb7fb469493fdbed8E"(i64 %s.1, i1 zeroext false)
          to label %bb4 unwind label %cleanup

bb3:                                              ; preds = %cleanup
  br i1 false, label %bb2, label %bb1

cleanup:                                          ; preds = %start
  %2 = landingpad { ptr, i32 }
          cleanup
  %3 = extractvalue { ptr, i32 } %2, 0
  %4 = extractvalue { ptr, i32 } %2, 1
  %5 = getelementptr inbounds { ptr, i32 }, ptr %0, i32 0, i32 0
  store ptr %3, ptr %5, align 8
  %6 = getelementptr inbounds { ptr, i32 }, ptr %0, i32 0, i32 1
  store i32 %4, ptr %6, align 8
  br label %bb3

bb4:                                              ; preds = %start
  %_13.0 = extractvalue { ptr, i64 } %1, 0
  %_13.1 = extractvalue { ptr, i64 } %1, 1
  %7 = getelementptr inbounds { ptr, i64 }, ptr %v, i32 0, i32 0
  store ptr %_13.0, ptr %7, align 8
  %8 = getelementptr inbounds { ptr, i64 }, ptr %v, i32 0, i32 1
  store i64 %_13.1, ptr %8, align 8
  %9 = getelementptr inbounds %"alloc::vec::Vec<u8>", ptr %v, i32 0, i32 1
  store i64 0, ptr %9, align 8
  %self = load ptr, ptr %v, align 8, !nonnull !5, !noundef !5
  %10 = mul i64 %s.1, 1
  call void @llvm.memcpy.p0.p0.i64(ptr align 1 %self, ptr align 1 %s.0, i64 %10, i1 false)
  %11 = getelementptr inbounds %"alloc::vec::Vec<u8>", ptr %v, i32 0, i32 1
  store i64 %s.1, ptr %11, align 8
  call void @llvm.memcpy.p0.p0.i64(ptr align 8 %_0, ptr align 8 %v, i64 24, i1 false)
  ret void

bb1:                                              ; preds = %bb2, %bb3
  %12 = load ptr, ptr %0, align 8, !noundef !5
  %13 = getelementptr inbounds { ptr, i32 }, ptr %0, i32 0, i32 1
  %14 = load i32, ptr %13, align 8, !noundef !5
  %15 = insertvalue { ptr, i32 } poison, ptr %12, 0
  %16 = insertvalue { ptr, i32 } %15, i32 %14, 1
  resume { ptr, i32 } %16

bb2:                                              ; preds = %bb3
  br label %bb1
}

; <() as std::process::Termination>::report
; Function Attrs: inlinehint nonlazybind uwtable
define internal i8 @"_ZN54_$LT$$LP$$RP$$u20$as$u20$std..process..Termination$GT$6report17he2920b34e78c5d53E"() unnamed_addr #2 {
start:
  ret i8 0
}

; alloc::alloc::Global::alloc_impl
; Function Attrs: inlinehint nonlazybind uwtable
define internal { ptr, i64 } @_ZN5alloc5alloc6Global10alloc_impl17hfd95d429ae7b124aE(ptr align 1 %self, i64 %layout.0, i64 %layout.1, i1 zeroext %zeroed) unnamed_addr #2 {
start:
  %0 = alloca i8, align 1
  %_70 = alloca { ptr, i64 }, align 8
  %_69 = alloca %"core::ptr::metadata::PtrRepr<[u8]>", align 8
  %_56 = alloca ptr, align 8
  %_51 = alloca i64, align 8
  %_39 = alloca i64, align 8
  %_32 = alloca { ptr, i64 }, align 8
  %_31 = alloca %"core::ptr::metadata::PtrRepr<[u8]>", align 8
  %_20 = alloca i64, align 8
  %_16 = alloca { ptr, i64 }, align 8
  %self2 = alloca ptr, align 8
  %self1 = alloca ptr, align 8
  %_10 = alloca ptr, align 8
  %raw_ptr = alloca ptr, align 8
  %data = alloca ptr, align 8
  %_6 = alloca { ptr, i64 }, align 8
  %_0 = alloca { ptr, i64 }, align 8
  %1 = icmp eq i64 %layout.1, 0
  br i1 %1, label %bb2, label %bb1

bb2:                                              ; preds = %start
  store i64 %layout.0, ptr %_20, align 8
  %_21 = load i64, ptr %_20, align 8, !range !6, !noundef !5
  %_22 = icmp uge i64 %_21, 1
  %_23 = icmp ule i64 %_21, -9223372036854775808
  %_24 = and i1 %_22, %_23
  call void @llvm.assume(i1 %_24)
  %ptr = inttoptr i64 %_21 to ptr
  store ptr %ptr, ptr %data, align 8
  %_29 = load ptr, ptr %data, align 8, !noundef !5
  store ptr %_29, ptr %_32, align 8
  %2 = getelementptr inbounds { ptr, i64 }, ptr %_32, i32 0, i32 1
  store i64 0, ptr %2, align 8
  %3 = getelementptr inbounds { ptr, i64 }, ptr %_32, i32 0, i32 0
  %4 = load ptr, ptr %3, align 8, !noundef !5
  %5 = getelementptr inbounds { ptr, i64 }, ptr %_32, i32 0, i32 1
  %6 = load i64, ptr %5, align 8, !noundef !5
  %7 = getelementptr inbounds { ptr, i64 }, ptr %_31, i32 0, i32 0
  store ptr %4, ptr %7, align 8
  %8 = getelementptr inbounds { ptr, i64 }, ptr %_31, i32 0, i32 1
  store i64 %6, ptr %8, align 8
  %9 = getelementptr inbounds { ptr, i64 }, ptr %_31, i32 0, i32 0
  %ptr.0 = load ptr, ptr %9, align 8, !noundef !5
  %10 = getelementptr inbounds { ptr, i64 }, ptr %_31, i32 0, i32 1
  %ptr.1 = load i64, ptr %10, align 8, !noundef !5
  %11 = getelementptr inbounds { ptr, i64 }, ptr %_6, i32 0, i32 0
  store ptr %ptr.0, ptr %11, align 8
  %12 = getelementptr inbounds { ptr, i64 }, ptr %_6, i32 0, i32 1
  store i64 %ptr.1, ptr %12, align 8
  %13 = getelementptr inbounds { ptr, i64 }, ptr %_6, i32 0, i32 0
  %14 = load ptr, ptr %13, align 8, !nonnull !5, !noundef !5
  %15 = getelementptr inbounds { ptr, i64 }, ptr %_6, i32 0, i32 1
  %16 = load i64, ptr %15, align 8, !noundef !5
  %17 = getelementptr inbounds { ptr, i64 }, ptr %_0, i32 0, i32 0
  store ptr %14, ptr %17, align 8
  %18 = getelementptr inbounds { ptr, i64 }, ptr %_0, i32 0, i32 1
  store i64 %16, ptr %18, align 8
  br label %bb11

bb1:                                              ; preds = %start
  br i1 %zeroed, label %bb3, label %bb4

bb11:                                             ; preds = %bb10, %bb8, %bb2
  %19 = getelementptr inbounds { ptr, i64 }, ptr %_0, i32 0, i32 0
  %20 = load ptr, ptr %19, align 8, !noundef !5
  %21 = getelementptr inbounds { ptr, i64 }, ptr %_0, i32 0, i32 1
  %22 = load i64, ptr %21, align 8
  %23 = insertvalue { ptr, i64 } poison, ptr %20, 0
  %24 = insertvalue { ptr, i64 } %23, i64 %22, 1
  ret { ptr, i64 } %24

bb4:                                              ; preds = %bb1
  %25 = load volatile i8, ptr @__rust_no_alloc_shim_is_unstable, align 1
  store i8 %25, ptr %0, align 1
  %_44 = load i8, ptr %0, align 1, !noundef !5
  store i64 %layout.0, ptr %_51, align 8
  %_52 = load i64, ptr %_51, align 8, !range !6, !noundef !5
  %_53 = icmp uge i64 %_52, 1
  %_54 = icmp ule i64 %_52, -9223372036854775808
  %_55 = and i1 %_53, %_54
  call void @llvm.assume(i1 %_55)
  %26 = call ptr @__rust_alloc(i64 %layout.1, i64 %_52) #17
  store ptr %26, ptr %raw_ptr, align 8
  br label %bb5

bb3:                                              ; preds = %bb1
  store i64 %layout.0, ptr %_39, align 8
  %_40 = load i64, ptr %_39, align 8, !range !6, !noundef !5
  %_41 = icmp uge i64 %_40, 1
  %_42 = icmp ule i64 %_40, -9223372036854775808
  %_43 = and i1 %_41, %_42
  call void @llvm.assume(i1 %_43)
  %27 = call ptr @__rust_alloc_zeroed(i64 %layout.1, i64 %_40) #17
  store ptr %27, ptr %raw_ptr, align 8
  br label %bb5

bb5:                                              ; preds = %bb3, %bb4
  %ptr3 = load ptr, ptr %raw_ptr, align 8, !noundef !5
  %_57 = ptrtoint ptr %ptr3 to i64
  %28 = icmp eq i64 %_57, 0
  br i1 %28, label %bb15, label %bb16

bb15:                                             ; preds = %bb5
  store ptr null, ptr %self2, align 8
  br label %bb6

bb16:                                             ; preds = %bb5
  store ptr %ptr3, ptr %_56, align 8
  %29 = load ptr, ptr %_56, align 8, !nonnull !5, !noundef !5
  store ptr %29, ptr %self2, align 8
  br label %bb6

bb6:                                              ; preds = %bb16, %bb15
  %30 = load ptr, ptr %self2, align 8, !noundef !5
  %31 = ptrtoint ptr %30 to i64
  %32 = icmp eq i64 %31, 0
  %_61 = select i1 %32, i64 0, i64 1
  %33 = icmp eq i64 %_61, 0
  br i1 %33, label %bb17, label %bb18

bb17:                                             ; preds = %bb6
  store ptr null, ptr %self1, align 8
  br label %bb19

bb18:                                             ; preds = %bb6
  %v = load ptr, ptr %self2, align 8, !nonnull !5, !noundef !5
  store ptr %v, ptr %self1, align 8
  br label %bb19

bb19:                                             ; preds = %bb18, %bb17
  %34 = load ptr, ptr %self1, align 8, !noundef !5
  %35 = ptrtoint ptr %34 to i64
  %36 = icmp eq i64 %35, 0
  %_63 = select i1 %36, i64 1, i64 0
  %37 = icmp eq i64 %_63, 0
  br i1 %37, label %bb21, label %bb20

bb21:                                             ; preds = %bb19
  %v4 = load ptr, ptr %self1, align 8, !nonnull !5, !noundef !5
  store ptr %v4, ptr %_10, align 8
  br label %bb7

bb20:                                             ; preds = %bb19
  store ptr null, ptr %_10, align 8
  br label %bb7

bb7:                                              ; preds = %bb20, %bb21
  %38 = load ptr, ptr %_10, align 8, !noundef !5
  %39 = ptrtoint ptr %38 to i64
  %40 = icmp eq i64 %39, 0
  %_14 = select i1 %40, i64 1, i64 0
  %41 = icmp eq i64 %_14, 0
  br i1 %41, label %bb8, label %bb10

bb8:                                              ; preds = %bb7
  %ptr5 = load ptr, ptr %_10, align 8, !nonnull !5, !noundef !5
  store ptr %ptr5, ptr %_70, align 8
  %42 = getelementptr inbounds { ptr, i64 }, ptr %_70, i32 0, i32 1
  store i64 %layout.1, ptr %42, align 8
  %43 = getelementptr inbounds { ptr, i64 }, ptr %_70, i32 0, i32 0
  %44 = load ptr, ptr %43, align 8, !noundef !5
  %45 = getelementptr inbounds { ptr, i64 }, ptr %_70, i32 0, i32 1
  %46 = load i64, ptr %45, align 8, !noundef !5
  %47 = getelementptr inbounds { ptr, i64 }, ptr %_69, i32 0, i32 0
  store ptr %44, ptr %47, align 8
  %48 = getelementptr inbounds { ptr, i64 }, ptr %_69, i32 0, i32 1
  store i64 %46, ptr %48, align 8
  %49 = getelementptr inbounds { ptr, i64 }, ptr %_69, i32 0, i32 0
  %ptr.06 = load ptr, ptr %49, align 8, !noundef !5
  %50 = getelementptr inbounds { ptr, i64 }, ptr %_69, i32 0, i32 1
  %ptr.17 = load i64, ptr %50, align 8, !noundef !5
  %51 = getelementptr inbounds { ptr, i64 }, ptr %_16, i32 0, i32 0
  store ptr %ptr.06, ptr %51, align 8
  %52 = getelementptr inbounds { ptr, i64 }, ptr %_16, i32 0, i32 1
  store i64 %ptr.17, ptr %52, align 8
  %53 = getelementptr inbounds { ptr, i64 }, ptr %_16, i32 0, i32 0
  %54 = load ptr, ptr %53, align 8, !nonnull !5, !noundef !5
  %55 = getelementptr inbounds { ptr, i64 }, ptr %_16, i32 0, i32 1
  %56 = load i64, ptr %55, align 8, !noundef !5
  %57 = getelementptr inbounds { ptr, i64 }, ptr %_0, i32 0, i32 0
  store ptr %54, ptr %57, align 8
  %58 = getelementptr inbounds { ptr, i64 }, ptr %_0, i32 0, i32 1
  store i64 %56, ptr %58, align 8
  br label %bb11

bb10:                                             ; preds = %bb7
  store ptr null, ptr %_0, align 8
  br label %bb11

bb9:                                              ; No predecessors!
  unreachable
}

; alloc::string::String::new
; Function Attrs: inlinehint nonlazybind uwtable
define internal void @_ZN5alloc6string6String3new17ha745cc55c910860bE(ptr sret(%"alloc::string::String") align 8 %_0) unnamed_addr #2 {
start:
  %_1 = alloca %"alloc::vec::Vec<u8>", align 8
  %0 = getelementptr inbounds { ptr, i64 }, ptr %_1, i32 0, i32 0
  store ptr inttoptr (i64 1 to ptr), ptr %0, align 8
  %1 = getelementptr inbounds { ptr, i64 }, ptr %_1, i32 0, i32 1
  store i64 0, ptr %1, align 8
  %2 = getelementptr inbounds %"alloc::vec::Vec<u8>", ptr %_1, i32 0, i32 1
  store i64 0, ptr %2, align 8
  call void @llvm.memcpy.p0.p0.i64(ptr align 8 %_0, ptr align 8 %_1, i64 24, i1 false)
  ret void
}

; alloc::raw_vec::RawVec<T,A>::allocate_in
; Function Attrs: nonlazybind uwtable
define internal { ptr, i64 } @"_ZN5alloc7raw_vec19RawVec$LT$T$C$A$GT$11allocate_in17hb7fb469493fdbed8E"(i64 %capacity, i1 zeroext %0) unnamed_addr #1 personality ptr @rust_eh_personality {
start:
  %1 = alloca { ptr, i32 }, align 8
  %_44 = alloca ptr, align 8
  %_29 = alloca ptr, align 8
  %_28 = alloca ptr, align 8
  %self = alloca ptr, align 8
  %_23 = alloca ptr, align 8
  %result = alloca { ptr, i64 }, align 8
  %_7 = alloca { i64, i64 }, align 8
  %_0 = alloca { ptr, i64 }, align 8
  %alloc = alloca %"alloc::alloc::Global", align 1
  %init = alloca i8, align 1
  %2 = zext i1 %0 to i8
  store i8 %2, ptr %init, align 1
  br i1 false, label %bb2, label %bb1

bb1:                                              ; preds = %start
  %3 = icmp eq i64 %capacity, 0
  br i1 %3, label %bb2, label %bb3

bb2:                                              ; preds = %bb1, %start
  store ptr inttoptr (i64 1 to ptr), ptr %_29, align 8
  %4 = load ptr, ptr %_29, align 8, !nonnull !5, !noundef !5
  store ptr %4, ptr %_28, align 8
  %5 = load ptr, ptr %_28, align 8, !nonnull !5, !noundef !5
  store ptr %5, ptr %_0, align 8
  %6 = getelementptr inbounds { ptr, i64 }, ptr %_0, i32 0, i32 1
  store i64 0, ptr %6, align 8
  br label %bb14

bb3:                                              ; preds = %bb1
; invoke core::alloc::layout::Layout::array::inner
  %7 = invoke { i64, i64 } @_ZN4core5alloc6layout6Layout5array5inner17h39f29352b4dccbedE(i64 1, i64 1, i64 %capacity)
          to label %bb18 unwind label %cleanup

bb17:                                             ; preds = %cleanup
  br i1 true, label %bb16, label %bb15

cleanup:                                          ; preds = %bb4, %bb12, %bb7, %bb8, %bb3
  %8 = landingpad { ptr, i32 }
          cleanup
  %9 = extractvalue { ptr, i32 } %8, 0
  %10 = extractvalue { ptr, i32 } %8, 1
  %11 = getelementptr inbounds { ptr, i32 }, ptr %1, i32 0, i32 0
  store ptr %9, ptr %11, align 8
  %12 = getelementptr inbounds { ptr, i32 }, ptr %1, i32 0, i32 1
  store i32 %10, ptr %12, align 8
  br label %bb17

bb18:                                             ; preds = %bb3
  store { i64, i64 } %7, ptr %_7, align 8
  %13 = load i64, ptr %_7, align 8, !range !7, !noundef !5
  %14 = icmp eq i64 %13, 0
  %_8 = select i1 %14, i64 1, i64 0
  %15 = icmp eq i64 %_8, 0
  br i1 %15, label %bb6, label %bb4

bb6:                                              ; preds = %bb18
  %16 = getelementptr inbounds { i64, i64 }, ptr %_7, i32 0, i32 0
  %layout.0 = load i64, ptr %16, align 8, !range !6, !noundef !5
  %17 = getelementptr inbounds { i64, i64 }, ptr %_7, i32 0, i32 1
  %layout.1 = load i64, ptr %17, align 8, !noundef !5
  %18 = load i8, ptr %init, align 1, !range !8, !noundef !5
  %19 = trunc i8 %18 to i1
  %_14 = zext i1 %19 to i64
  %20 = icmp eq i64 %_14, 0
  br i1 %20, label %bb8, label %bb7

bb4:                                              ; preds = %bb18
; invoke alloc::raw_vec::capacity_overflow
  invoke void @_ZN5alloc7raw_vec17capacity_overflow17h65984c0dd46b1a32E() #16
          to label %unreachable unwind label %cleanup

bb8:                                              ; preds = %bb6
; invoke <alloc::alloc::Global as core::alloc::Allocator>::allocate
  %21 = invoke { ptr, i64 } @"_ZN63_$LT$alloc..alloc..Global$u20$as$u20$core..alloc..Allocator$GT$8allocate17h4b75c6889bfe797dE"(ptr align 1 %alloc, i64 %layout.0, i64 %layout.1)
          to label %bb9 unwind label %cleanup

bb7:                                              ; preds = %bb6
; invoke <alloc::alloc::Global as core::alloc::Allocator>::allocate_zeroed
  %22 = invoke { ptr, i64 } @"_ZN63_$LT$alloc..alloc..Global$u20$as$u20$core..alloc..Allocator$GT$15allocate_zeroed17h5bec1afb681a802bE"(ptr align 1 %alloc, i64 %layout.0, i64 %layout.1)
          to label %bb10 unwind label %cleanup

bb9:                                              ; preds = %bb8
  store { ptr, i64 } %21, ptr %result, align 8
  br label %bb11

bb11:                                             ; preds = %bb10, %bb9
  %23 = load ptr, ptr %result, align 8, !noundef !5
  %24 = ptrtoint ptr %23 to i64
  %25 = icmp eq i64 %24, 0
  %_19 = select i1 %25, i64 1, i64 0
  %26 = icmp eq i64 %_19, 0
  br i1 %26, label %bb13, label %bb12

bb10:                                             ; preds = %bb7
  store { ptr, i64 } %22, ptr %result, align 8
  br label %bb11

bb13:                                             ; preds = %bb11
  %27 = getelementptr inbounds { ptr, i64 }, ptr %result, i32 0, i32 0
  %ptr.0 = load ptr, ptr %27, align 8, !nonnull !5, !noundef !5
  %28 = getelementptr inbounds { ptr, i64 }, ptr %result, i32 0, i32 1
  %ptr.1 = load i64, ptr %28, align 8, !noundef !5
  store ptr %ptr.0, ptr %self, align 8
  %_43 = load ptr, ptr %self, align 8, !noundef !5
  store ptr %_43, ptr %_44, align 8
  %29 = load ptr, ptr %_44, align 8, !nonnull !5, !noundef !5
  store ptr %29, ptr %_23, align 8
  %30 = load ptr, ptr %_23, align 8, !nonnull !5, !noundef !5
  store ptr %30, ptr %_0, align 8
  %31 = getelementptr inbounds { ptr, i64 }, ptr %_0, i32 0, i32 1
  store i64 %capacity, ptr %31, align 8
  br label %bb14

bb12:                                             ; preds = %bb11
; invoke alloc::alloc::handle_alloc_error
  invoke void @_ZN5alloc5alloc18handle_alloc_error17h9d90dd3d9d02fb33E(i64 %layout.0, i64 %layout.1) #16
          to label %unreachable unwind label %cleanup

bb14:                                             ; preds = %bb2, %bb13
  %32 = getelementptr inbounds { ptr, i64 }, ptr %_0, i32 0, i32 0
  %33 = load ptr, ptr %32, align 8, !nonnull !5, !noundef !5
  %34 = getelementptr inbounds { ptr, i64 }, ptr %_0, i32 0, i32 1
  %35 = load i64, ptr %34, align 8, !noundef !5
  %36 = insertvalue { ptr, i64 } poison, ptr %33, 0
  %37 = insertvalue { ptr, i64 } %36, i64 %35, 1
  ret { ptr, i64 } %37

unreachable:                                      ; preds = %bb4, %bb12
  unreachable

bb5:                                              ; No predecessors!
  unreachable

bb15:                                             ; preds = %bb16, %bb17
  %38 = load ptr, ptr %1, align 8, !noundef !5
  %39 = getelementptr inbounds { ptr, i32 }, ptr %1, i32 0, i32 1
  %40 = load i32, ptr %39, align 8, !noundef !5
  %41 = insertvalue { ptr, i32 } poison, ptr %38, 0
  %42 = insertvalue { ptr, i32 } %41, i32 %40, 1
  resume { ptr, i32 } %42

bb16:                                             ; preds = %bb17
  br label %bb15
}

; alloc::raw_vec::RawVec<T,A>::current_memory
; Function Attrs: nonlazybind uwtable
define internal void @"_ZN5alloc7raw_vec19RawVec$LT$T$C$A$GT$14current_memory17hdb6b05ab5e04b3b5E"(ptr sret(%"core::option::Option<(core::ptr::non_null::NonNull<u8>, core::alloc::layout::Layout)>") align 8 %_0, ptr align 8 %self) unnamed_addr #1 {
start:
  %self2 = alloca ptr, align 8
  %self1 = alloca ptr, align 8
  %_10 = alloca ptr, align 8
  %_9 = alloca { ptr, { i64, i64 } }, align 8
  %layout = alloca { i64, i64 }, align 8
  br i1 false, label %bb2, label %bb1

bb1:                                              ; preds = %start
  %0 = getelementptr inbounds { ptr, i64 }, ptr %self, i32 0, i32 1
  %_3 = load i64, ptr %0, align 8, !noundef !5
  %1 = icmp eq i64 %_3, 0
  br i1 %1, label %bb2, label %bb3

bb2:                                              ; preds = %bb1, %start
  %2 = getelementptr inbounds %"core::option::Option<(core::ptr::non_null::NonNull<u8>, core::alloc::layout::Layout)>", ptr %_0, i32 0, i32 1
  store i64 0, ptr %2, align 8
  br label %bb4

bb3:                                              ; preds = %bb1
  %3 = getelementptr inbounds { ptr, i64 }, ptr %self, i32 0, i32 1
  %rhs = load i64, ptr %3, align 8, !noundef !5
  %size = mul nuw i64 1, %rhs
  %4 = getelementptr inbounds { i64, i64 }, ptr %layout, i32 0, i32 1
  store i64 %size, ptr %4, align 8
  store i64 1, ptr %layout, align 8
  %self3 = load ptr, ptr %self, align 8, !nonnull !5, !noundef !5
  store ptr %self3, ptr %self1, align 8
  %_19 = load ptr, ptr %self1, align 8, !noundef !5
  store ptr %_19, ptr %self2, align 8
  %_24 = load ptr, ptr %self2, align 8, !noundef !5
  store ptr %_24, ptr %_10, align 8
  %5 = load ptr, ptr %_10, align 8, !nonnull !5, !noundef !5
  store ptr %5, ptr %_9, align 8
  %6 = getelementptr inbounds { i64, i64 }, ptr %layout, i32 0, i32 0
  %7 = load i64, ptr %6, align 8, !range !6, !noundef !5
  %8 = getelementptr inbounds { i64, i64 }, ptr %layout, i32 0, i32 1
  %9 = load i64, ptr %8, align 8, !noundef !5
  %10 = getelementptr inbounds { ptr, { i64, i64 } }, ptr %_9, i32 0, i32 1
  %11 = getelementptr inbounds { i64, i64 }, ptr %10, i32 0, i32 0
  store i64 %7, ptr %11, align 8
  %12 = getelementptr inbounds { i64, i64 }, ptr %10, i32 0, i32 1
  store i64 %9, ptr %12, align 8
  call void @llvm.memcpy.p0.p0.i64(ptr align 8 %_0, ptr align 8 %_9, i64 24, i1 false)
  br label %bb4

bb4:                                              ; preds = %bb2, %bb3
  ret void
}

; <alloc::alloc::Global as core::alloc::Allocator>::deallocate
; Function Attrs: inlinehint nonlazybind uwtable
define internal void @"_ZN63_$LT$alloc..alloc..Global$u20$as$u20$core..alloc..Allocator$GT$10deallocate17h4ed9e1e325eb335bE"(ptr align 1 %self, ptr %ptr, i64 %layout.0, i64 %layout.1) unnamed_addr #2 {
start:
  %_11 = alloca i64, align 8
  %0 = icmp eq i64 %layout.1, 0
  br i1 %0, label %bb2, label %bb1

bb2:                                              ; preds = %start
  br label %bb3

bb1:                                              ; preds = %start
  store i64 %layout.0, ptr %_11, align 8
  %_12 = load i64, ptr %_11, align 8, !range !6, !noundef !5
  %_13 = icmp uge i64 %_12, 1
  %_14 = icmp ule i64 %_12, -9223372036854775808
  %_15 = and i1 %_13, %_14
  call void @llvm.assume(i1 %_15)
  call void @__rust_dealloc(ptr %ptr, i64 %layout.1, i64 %_12) #17
  br label %bb3

bb3:                                              ; preds = %bb1, %bb2
  ret void
}

; <alloc::alloc::Global as core::alloc::Allocator>::allocate_zeroed
; Function Attrs: inlinehint nonlazybind uwtable
define internal { ptr, i64 } @"_ZN63_$LT$alloc..alloc..Global$u20$as$u20$core..alloc..Allocator$GT$15allocate_zeroed17h5bec1afb681a802bE"(ptr align 1 %self, i64 %layout.0, i64 %layout.1) unnamed_addr #2 {
start:
; call alloc::alloc::Global::alloc_impl
  %0 = call { ptr, i64 } @_ZN5alloc5alloc6Global10alloc_impl17hfd95d429ae7b124aE(ptr align 1 %self, i64 %layout.0, i64 %layout.1, i1 zeroext true)
  %_0.0 = extractvalue { ptr, i64 } %0, 0
  %_0.1 = extractvalue { ptr, i64 } %0, 1
  %1 = insertvalue { ptr, i64 } poison, ptr %_0.0, 0
  %2 = insertvalue { ptr, i64 } %1, i64 %_0.1, 1
  ret { ptr, i64 } %2
}

; <alloc::alloc::Global as core::alloc::Allocator>::allocate
; Function Attrs: inlinehint nonlazybind uwtable
define internal { ptr, i64 } @"_ZN63_$LT$alloc..alloc..Global$u20$as$u20$core..alloc..Allocator$GT$8allocate17h4b75c6889bfe797dE"(ptr align 1 %self, i64 %layout.0, i64 %layout.1) unnamed_addr #2 {
start:
; call alloc::alloc::Global::alloc_impl
  %0 = call { ptr, i64 } @_ZN5alloc5alloc6Global10alloc_impl17hfd95d429ae7b124aE(ptr align 1 %self, i64 %layout.0, i64 %layout.1, i1 zeroext false)
  %_0.0 = extractvalue { ptr, i64 } %0, 0
  %_0.1 = extractvalue { ptr, i64 } %0, 1
  %1 = insertvalue { ptr, i64 } poison, ptr %_0.0, 0
  %2 = insertvalue { ptr, i64 } %1, i64 %_0.1, 1
  ret { ptr, i64 } %2
}

; <alloc::vec::Vec<T,A> as core::ops::drop::Drop>::drop
; Function Attrs: nonlazybind uwtable
define internal void @"_ZN70_$LT$alloc..vec..Vec$LT$T$C$A$GT$$u20$as$u20$core..ops..drop..Drop$GT$4drop17h6fc88c17303a79beE"(ptr align 8 %self) unnamed_addr #1 {
start:
  %_10 = alloca { ptr, i64 }, align 8
  %_9 = alloca %"core::ptr::metadata::PtrRepr<[u8]>", align 8
  %self1 = load ptr, ptr %self, align 8, !nonnull !5, !noundef !5
  %0 = getelementptr inbounds %"alloc::vec::Vec<u8>", ptr %self, i32 0, i32 1
  %len = load i64, ptr %0, align 8, !noundef !5
  store ptr %self1, ptr %_10, align 8
  %1 = getelementptr inbounds { ptr, i64 }, ptr %_10, i32 0, i32 1
  store i64 %len, ptr %1, align 8
  %2 = getelementptr inbounds { ptr, i64 }, ptr %_10, i32 0, i32 0
  %3 = load ptr, ptr %2, align 8, !noundef !5
  %4 = getelementptr inbounds { ptr, i64 }, ptr %_10, i32 0, i32 1
  %5 = load i64, ptr %4, align 8, !noundef !5
  %6 = getelementptr inbounds { ptr, i64 }, ptr %_9, i32 0, i32 0
  store ptr %3, ptr %6, align 8
  %7 = getelementptr inbounds { ptr, i64 }, ptr %_9, i32 0, i32 1
  store i64 %5, ptr %7, align 8
  %8 = getelementptr inbounds { ptr, i64 }, ptr %_9, i32 0, i32 0
  %_2.0 = load ptr, ptr %8, align 8, !noundef !5
  %9 = getelementptr inbounds { ptr, i64 }, ptr %_9, i32 0, i32 1
  %_2.1 = load i64, ptr %9, align 8, !noundef !5
  ret void
}

; <alloc::string::String as core::convert::From<&str>>::from
; Function Attrs: inlinehint nonlazybind uwtable
define internal void @"_ZN76_$LT$alloc..string..String$u20$as$u20$core..convert..From$LT$$RF$str$GT$$GT$4from17ha8f54335dd99c1a1E"(ptr sret(%"alloc::string::String") align 8 %_0, ptr align 1 %s.0, i64 %s.1) unnamed_addr #2 {
start:
  %bytes = alloca %"alloc::vec::Vec<u8>", align 8
; call <T as alloc::slice::hack::ConvertVec>::to_vec
  call void @"_ZN52_$LT$T$u20$as$u20$alloc..slice..hack..ConvertVec$GT$6to_vec17h2c889545f7661458E"(ptr sret(%"alloc::vec::Vec<u8>") align 8 %bytes, ptr align 1 %s.0, i64 %s.1)
  call void @llvm.memcpy.p0.p0.i64(ptr align 8 %_0, ptr align 8 %bytes, i64 24, i1 false)
  ret void
}

; <alloc::raw_vec::RawVec<T,A> as core::ops::drop::Drop>::drop
; Function Attrs: nonlazybind uwtable
define internal void @"_ZN77_$LT$alloc..raw_vec..RawVec$LT$T$C$A$GT$$u20$as$u20$core..ops..drop..Drop$GT$4drop17h3ab855d7c8e00673E"(ptr align 8 %self) unnamed_addr #1 {
start:
  %_2 = alloca %"core::option::Option<(core::ptr::non_null::NonNull<u8>, core::alloc::layout::Layout)>", align 8
; call alloc::raw_vec::RawVec<T,A>::current_memory
  call void @"_ZN5alloc7raw_vec19RawVec$LT$T$C$A$GT$14current_memory17hdb6b05ab5e04b3b5E"(ptr sret(%"core::option::Option<(core::ptr::non_null::NonNull<u8>, core::alloc::layout::Layout)>") align 8 %_2, ptr align 8 %self)
  %0 = getelementptr inbounds %"core::option::Option<(core::ptr::non_null::NonNull<u8>, core::alloc::layout::Layout)>", ptr %_2, i32 0, i32 1
  %1 = load i64, ptr %0, align 8, !range !7, !noundef !5
  %2 = icmp eq i64 %1, 0
  %_4 = select i1 %2, i64 0, i64 1
  %3 = icmp eq i64 %_4, 1
  br i1 %3, label %bb2, label %bb4

bb2:                                              ; preds = %start
  %ptr = load ptr, ptr %_2, align 8, !nonnull !5, !noundef !5
  %4 = getelementptr inbounds { ptr, { i64, i64 } }, ptr %_2, i32 0, i32 1
  %5 = getelementptr inbounds { i64, i64 }, ptr %4, i32 0, i32 0
  %layout.0 = load i64, ptr %5, align 8, !range !6, !noundef !5
  %6 = getelementptr inbounds { i64, i64 }, ptr %4, i32 0, i32 1
  %layout.1 = load i64, ptr %6, align 8, !noundef !5
  %_7 = getelementptr i8, ptr %self, i64 16
; call <alloc::alloc::Global as core::alloc::Allocator>::deallocate
  call void @"_ZN63_$LT$alloc..alloc..Global$u20$as$u20$core..alloc..Allocator$GT$10deallocate17h4ed9e1e325eb335bE"(ptr align 1 %_7, ptr %ptr, i64 %layout.0, i64 %layout.1)
  br label %bb4

bb4:                                              ; preds = %bb2, %start
  ret void
}

; struct_usage::main
; Function Attrs: nonlazybind uwtable
define internal void @_ZN12struct_usage4main17h81d9e66f0c89d1b8E() unnamed_addr #1 personality ptr @rust_eh_personality {
start:
  %0 = alloca { ptr, i32 }, align 8
  %_25 = alloca i8, align 1
  %_22 = alloca %"alloc::string::String", align 8
  %_21 = alloca %"alloc::string::String", align 8
  %_user5 = alloca %User, align 8
  %_19 = alloca %"alloc::string::String", align 8
  %_18 = alloca %"alloc::string::String", align 8
  %_user4 = alloca %User, align 8
  %_16 = alloca %"alloc::string::String", align 8
  %_15 = alloca %"alloc::string::String", align 8
  %user3 = alloca %User, align 8
  %_13 = alloca %"alloc::string::String", align 8
  %_12 = alloca %"alloc::string::String", align 8
  %_user2 = alloca %User, align 8
  %username = alloca %"alloc::string::String", align 8
  %email = alloca %"alloc::string::String", align 8
  %_8 = alloca %"alloc::string::String", align 8
  %_7 = alloca %"alloc::string::String", align 8
  %_6 = alloca %"alloc::string::String", align 8
  %_5 = alloca %"alloc::string::String", align 8
  %user1 = alloca %User, align 8
  %_3 = alloca %"alloc::string::String", align 8
  %_2 = alloca %"alloc::string::String", align 8
  %_user0 = alloca %User, align 8
  store i8 0, ptr %_25, align 1
; call <alloc::string::String as core::convert::From<&str>>::from
  call void @"_ZN76_$LT$alloc..string..String$u20$as$u20$core..convert..From$LT$$RF$str$GT$$GT$4from17ha8f54335dd99c1a1E"(ptr sret(%"alloc::string::String") align 8 %_2, ptr align 1 @alloc_98b490750177828e02204b4945c616c9, i64 19)
; invoke <alloc::string::String as core::convert::From<&str>>::from
  invoke void @"_ZN76_$LT$alloc..string..String$u20$as$u20$core..convert..From$LT$$RF$str$GT$$GT$4from17ha8f54335dd99c1a1E"(ptr sret(%"alloc::string::String") align 8 %_3, ptr align 1 @alloc_ae9624a8a03bf54078d71818e8ae9e83, i64 15)
          to label %bb2 unwind label %cleanup

bb34:                                             ; preds = %cleanup
; invoke core::ptr::drop_in_place<alloc::string::String>
  invoke void @"_ZN4core3ptr42drop_in_place$LT$alloc..string..String$GT$17h5b76beccd88832b8E"(ptr align 8 %_2) #14
          to label %bb35 unwind label %terminate

cleanup:                                          ; preds = %start
  %1 = landingpad { ptr, i32 }
          cleanup
  %2 = extractvalue { ptr, i32 } %1, 0
  %3 = extractvalue { ptr, i32 } %1, 1
  %4 = getelementptr inbounds { ptr, i32 }, ptr %0, i32 0, i32 0
  store ptr %2, ptr %4, align 8
  %5 = getelementptr inbounds { ptr, i32 }, ptr %0, i32 0, i32 1
  store i32 %3, ptr %5, align 8
  br label %bb34

bb2:                                              ; preds = %start
  call void @llvm.memcpy.p0.p0.i64(ptr align 8 %_user0, ptr align 8 %_3, i64 24, i1 false)
  %6 = getelementptr inbounds %User, ptr %_user0, i32 0, i32 1
  call void @llvm.memcpy.p0.p0.i64(ptr align 8 %6, ptr align 8 %_2, i64 24, i1 false)
  %7 = getelementptr inbounds %User, ptr %_user0, i32 0, i32 2
  store i64 1, ptr %7, align 8
  %8 = getelementptr inbounds %User, ptr %_user0, i32 0, i32 3
  store i8 1, ptr %8, align 8
; invoke <alloc::string::String as core::convert::From<&str>>::from
  invoke void @"_ZN76_$LT$alloc..string..String$u20$as$u20$core..convert..From$LT$$RF$str$GT$$GT$4from17ha8f54335dd99c1a1E"(ptr sret(%"alloc::string::String") align 8 %_5, ptr align 1 @alloc_98b490750177828e02204b4945c616c9, i64 19)
          to label %bb3 unwind label %cleanup1

bb33:                                             ; preds = %bb32, %bb31, %cleanup1
; invoke core::ptr::drop_in_place<struct_usage::User>
  invoke void @"_ZN4core3ptr39drop_in_place$LT$struct_usage..User$GT$17h794f9338fba1adfcE"(ptr align 8 %_user0) #14
          to label %bb35 unwind label %terminate

cleanup1:                                         ; preds = %bb22, %bb2
  %9 = landingpad { ptr, i32 }
          cleanup
  %10 = extractvalue { ptr, i32 } %9, 0
  %11 = extractvalue { ptr, i32 } %9, 1
  %12 = getelementptr inbounds { ptr, i32 }, ptr %0, i32 0, i32 0
  store ptr %10, ptr %12, align 8
  %13 = getelementptr inbounds { ptr, i32 }, ptr %0, i32 0, i32 1
  store i32 %11, ptr %13, align 8
  br label %bb33

bb3:                                              ; preds = %bb2
; invoke <alloc::string::String as core::convert::From<&str>>::from
  invoke void @"_ZN76_$LT$alloc..string..String$u20$as$u20$core..convert..From$LT$$RF$str$GT$$GT$4from17ha8f54335dd99c1a1E"(ptr sret(%"alloc::string::String") align 8 %_6, ptr align 1 @alloc_ae9624a8a03bf54078d71818e8ae9e83, i64 15)
          to label %bb4 unwind label %cleanup2

bb32:                                             ; preds = %cleanup2
; invoke core::ptr::drop_in_place<alloc::string::String>
  invoke void @"_ZN4core3ptr42drop_in_place$LT$alloc..string..String$GT$17h5b76beccd88832b8E"(ptr align 8 %_5) #14
          to label %bb33 unwind label %terminate

cleanup2:                                         ; preds = %bb3
  %14 = landingpad { ptr, i32 }
          cleanup
  %15 = extractvalue { ptr, i32 } %14, 0
  %16 = extractvalue { ptr, i32 } %14, 1
  %17 = getelementptr inbounds { ptr, i32 }, ptr %0, i32 0, i32 0
  store ptr %15, ptr %17, align 8
  %18 = getelementptr inbounds { ptr, i32 }, ptr %0, i32 0, i32 1
  store i32 %16, ptr %18, align 8
  br label %bb32

bb4:                                              ; preds = %bb3
  call void @llvm.memcpy.p0.p0.i64(ptr align 8 %user1, ptr align 8 %_6, i64 24, i1 false)
  %19 = getelementptr inbounds %User, ptr %user1, i32 0, i32 1
  call void @llvm.memcpy.p0.p0.i64(ptr align 8 %19, ptr align 8 %_5, i64 24, i1 false)
  %20 = getelementptr inbounds %User, ptr %user1, i32 0, i32 2
  store i64 1, ptr %20, align 8
  %21 = getelementptr inbounds %User, ptr %user1, i32 0, i32 3
  store i8 1, ptr %21, align 8
; invoke alloc::string::String::new
  invoke void @_ZN5alloc6string6String3new17ha745cc55c910860bE(ptr sret(%"alloc::string::String") align 8 %_7)
          to label %bb5 unwind label %cleanup3

bb31:                                             ; preds = %bb7, %bb10, %bb36, %bb37, %cleanup3
; invoke core::ptr::drop_in_place<struct_usage::User>
  invoke void @"_ZN4core3ptr39drop_in_place$LT$struct_usage..User$GT$17h794f9338fba1adfcE"(ptr align 8 %user1) #14
          to label %bb33 unwind label %terminate

cleanup3:                                         ; preds = %bb9, %bb6, %bb4
  %22 = landingpad { ptr, i32 }
          cleanup
  %23 = extractvalue { ptr, i32 } %22, 0
  %24 = extractvalue { ptr, i32 } %22, 1
  %25 = getelementptr inbounds { ptr, i32 }, ptr %0, i32 0, i32 0
  store ptr %23, ptr %25, align 8
  %26 = getelementptr inbounds { ptr, i32 }, ptr %0, i32 0, i32 1
  store i32 %24, ptr %26, align 8
  br label %bb31

bb5:                                              ; preds = %bb4
  %27 = getelementptr inbounds %User, ptr %user1, i32 0, i32 1
; invoke core::ptr::drop_in_place<alloc::string::String>
  invoke void @"_ZN4core3ptr42drop_in_place$LT$alloc..string..String$GT$17h5b76beccd88832b8E"(ptr align 8 %27)
          to label %bb6 unwind label %cleanup4

bb7:                                              ; preds = %cleanup4
  %28 = getelementptr inbounds %User, ptr %user1, i32 0, i32 1
  call void @llvm.memcpy.p0.p0.i64(ptr align 8 %28, ptr align 8 %_7, i64 24, i1 false)
  br label %bb31

cleanup4:                                         ; preds = %bb5
  %29 = landingpad { ptr, i32 }
          cleanup
  %30 = extractvalue { ptr, i32 } %29, 0
  %31 = extractvalue { ptr, i32 } %29, 1
  %32 = getelementptr inbounds { ptr, i32 }, ptr %0, i32 0, i32 0
  store ptr %30, ptr %32, align 8
  %33 = getelementptr inbounds { ptr, i32 }, ptr %0, i32 0, i32 1
  store i32 %31, ptr %33, align 8
  br label %bb7

bb6:                                              ; preds = %bb5
  %34 = getelementptr inbounds %User, ptr %user1, i32 0, i32 1
  call void @llvm.memcpy.p0.p0.i64(ptr align 8 %34, ptr align 8 %_7, i64 24, i1 false)
; invoke alloc::string::String::new
  invoke void @_ZN5alloc6string6String3new17ha745cc55c910860bE(ptr sret(%"alloc::string::String") align 8 %_8)
          to label %bb8 unwind label %cleanup3

bb8:                                              ; preds = %bb6
; invoke core::ptr::drop_in_place<alloc::string::String>
  invoke void @"_ZN4core3ptr42drop_in_place$LT$alloc..string..String$GT$17h5b76beccd88832b8E"(ptr align 8 %user1)
          to label %bb9 unwind label %cleanup5

bb10:                                             ; preds = %cleanup5
  call void @llvm.memcpy.p0.p0.i64(ptr align 8 %user1, ptr align 8 %_8, i64 24, i1 false)
  br label %bb31

cleanup5:                                         ; preds = %bb8
  %35 = landingpad { ptr, i32 }
          cleanup
  %36 = extractvalue { ptr, i32 } %35, 0
  %37 = extractvalue { ptr, i32 } %35, 1
  %38 = getelementptr inbounds { ptr, i32 }, ptr %0, i32 0, i32 0
  store ptr %36, ptr %38, align 8
  %39 = getelementptr inbounds { ptr, i32 }, ptr %0, i32 0, i32 1
  store i32 %37, ptr %39, align 8
  br label %bb10

bb9:                                              ; preds = %bb8
  call void @llvm.memcpy.p0.p0.i64(ptr align 8 %user1, ptr align 8 %_8, i64 24, i1 false)
; invoke <alloc::string::String as core::convert::From<&str>>::from
  invoke void @"_ZN76_$LT$alloc..string..String$u20$as$u20$core..convert..From$LT$$RF$str$GT$$GT$4from17ha8f54335dd99c1a1E"(ptr sret(%"alloc::string::String") align 8 %email, ptr align 1 @alloc_98b490750177828e02204b4945c616c9, i64 19)
          to label %bb11 unwind label %cleanup3

bb11:                                             ; preds = %bb9
  store i8 1, ptr %_25, align 1
; invoke <alloc::string::String as core::convert::From<&str>>::from
  invoke void @"_ZN76_$LT$alloc..string..String$u20$as$u20$core..convert..From$LT$$RF$str$GT$$GT$4from17ha8f54335dd99c1a1E"(ptr sret(%"alloc::string::String") align 8 %username, ptr align 1 @alloc_ae9624a8a03bf54078d71818e8ae9e83, i64 15)
          to label %bb12 unwind label %cleanup6

bb37:                                             ; preds = %bb30, %cleanup6
  %40 = load i8, ptr %_25, align 1, !range !8, !noundef !5
  %41 = trunc i8 %40 to i1
  br i1 %41, label %bb36, label %bb31

cleanup6:                                         ; preds = %bb21, %bb11
  %42 = landingpad { ptr, i32 }
          cleanup
  %43 = extractvalue { ptr, i32 } %42, 0
  %44 = extractvalue { ptr, i32 } %42, 1
  %45 = getelementptr inbounds { ptr, i32 }, ptr %0, i32 0, i32 0
  store ptr %43, ptr %45, align 8
  %46 = getelementptr inbounds { ptr, i32 }, ptr %0, i32 0, i32 1
  store i32 %44, ptr %46, align 8
  br label %bb37

bb12:                                             ; preds = %bb11
  store i8 0, ptr %_25, align 1
  call void @llvm.memcpy.p0.p0.i64(ptr align 8 %_12, ptr align 8 %email, i64 24, i1 false)
  call void @llvm.memcpy.p0.p0.i64(ptr align 8 %_13, ptr align 8 %username, i64 24, i1 false)
  call void @llvm.memcpy.p0.p0.i64(ptr align 8 %_user2, ptr align 8 %_13, i64 24, i1 false)
  %47 = getelementptr inbounds %User, ptr %_user2, i32 0, i32 1
  call void @llvm.memcpy.p0.p0.i64(ptr align 8 %47, ptr align 8 %_12, i64 24, i1 false)
  %48 = getelementptr inbounds %User, ptr %_user2, i32 0, i32 2
  store i64 1, ptr %48, align 8
  %49 = getelementptr inbounds %User, ptr %_user2, i32 0, i32 3
  store i8 1, ptr %49, align 8
; invoke <alloc::string::String as core::convert::From<&str>>::from
  invoke void @"_ZN76_$LT$alloc..string..String$u20$as$u20$core..convert..From$LT$$RF$str$GT$$GT$4from17ha8f54335dd99c1a1E"(ptr sret(%"alloc::string::String") align 8 %_15, ptr align 1 @alloc_98b490750177828e02204b4945c616c9, i64 19)
          to label %bb13 unwind label %cleanup7

bb30:                                             ; preds = %bb29, %bb28, %cleanup7
; invoke core::ptr::drop_in_place<struct_usage::User>
  invoke void @"_ZN4core3ptr39drop_in_place$LT$struct_usage..User$GT$17h794f9338fba1adfcE"(ptr align 8 %_user2) #14
          to label %bb37 unwind label %terminate

cleanup7:                                         ; preds = %bb20, %bb12
  %50 = landingpad { ptr, i32 }
          cleanup
  %51 = extractvalue { ptr, i32 } %50, 0
  %52 = extractvalue { ptr, i32 } %50, 1
  %53 = getelementptr inbounds { ptr, i32 }, ptr %0, i32 0, i32 0
  store ptr %51, ptr %53, align 8
  %54 = getelementptr inbounds { ptr, i32 }, ptr %0, i32 0, i32 1
  store i32 %52, ptr %54, align 8
  br label %bb30

bb13:                                             ; preds = %bb12
; invoke <alloc::string::String as core::convert::From<&str>>::from
  invoke void @"_ZN76_$LT$alloc..string..String$u20$as$u20$core..convert..From$LT$$RF$str$GT$$GT$4from17ha8f54335dd99c1a1E"(ptr sret(%"alloc::string::String") align 8 %_16, ptr align 1 @alloc_ae9624a8a03bf54078d71818e8ae9e83, i64 15)
          to label %bb14 unwind label %cleanup8

bb29:                                             ; preds = %cleanup8
; invoke core::ptr::drop_in_place<alloc::string::String>
  invoke void @"_ZN4core3ptr42drop_in_place$LT$alloc..string..String$GT$17h5b76beccd88832b8E"(ptr align 8 %_15) #14
          to label %bb30 unwind label %terminate

cleanup8:                                         ; preds = %bb13
  %55 = landingpad { ptr, i32 }
          cleanup
  %56 = extractvalue { ptr, i32 } %55, 0
  %57 = extractvalue { ptr, i32 } %55, 1
  %58 = getelementptr inbounds { ptr, i32 }, ptr %0, i32 0, i32 0
  store ptr %56, ptr %58, align 8
  %59 = getelementptr inbounds { ptr, i32 }, ptr %0, i32 0, i32 1
  store i32 %57, ptr %59, align 8
  br label %bb29

bb14:                                             ; preds = %bb13
  call void @llvm.memcpy.p0.p0.i64(ptr align 8 %user3, ptr align 8 %_16, i64 24, i1 false)
  %60 = getelementptr inbounds %User, ptr %user3, i32 0, i32 1
  call void @llvm.memcpy.p0.p0.i64(ptr align 8 %60, ptr align 8 %_15, i64 24, i1 false)
  %61 = getelementptr inbounds %User, ptr %user3, i32 0, i32 2
  store i64 1, ptr %61, align 8
  %62 = getelementptr inbounds %User, ptr %user3, i32 0, i32 3
  store i8 1, ptr %62, align 8
; invoke <alloc::string::String as core::convert::From<&str>>::from
  invoke void @"_ZN76_$LT$alloc..string..String$u20$as$u20$core..convert..From$LT$$RF$str$GT$$GT$4from17ha8f54335dd99c1a1E"(ptr sret(%"alloc::string::String") align 8 %_18, ptr align 1 @alloc_9b192103b087c498b823dc2c756be167, i64 19)
          to label %bb15 unwind label %cleanup9

bb28:                                             ; preds = %bb27, %bb26, %cleanup9
; invoke core::ptr::drop_in_place<struct_usage::User>
  invoke void @"_ZN4core3ptr39drop_in_place$LT$struct_usage..User$GT$17h794f9338fba1adfcE"(ptr align 8 %user3) #14
          to label %bb30 unwind label %terminate

cleanup9:                                         ; preds = %bb19, %bb14
  %63 = landingpad { ptr, i32 }
          cleanup
  %64 = extractvalue { ptr, i32 } %63, 0
  %65 = extractvalue { ptr, i32 } %63, 1
  %66 = getelementptr inbounds { ptr, i32 }, ptr %0, i32 0, i32 0
  store ptr %64, ptr %66, align 8
  %67 = getelementptr inbounds { ptr, i32 }, ptr %0, i32 0, i32 1
  store i32 %65, ptr %67, align 8
  br label %bb28

bb15:                                             ; preds = %bb14
; invoke <alloc::string::String as core::convert::From<&str>>::from
  invoke void @"_ZN76_$LT$alloc..string..String$u20$as$u20$core..convert..From$LT$$RF$str$GT$$GT$4from17ha8f54335dd99c1a1E"(ptr sret(%"alloc::string::String") align 8 %_19, ptr align 1 @alloc_53e59ec1a43a7e31ac99ea0b5b0b1728, i64 18)
          to label %bb16 unwind label %cleanup10

bb27:                                             ; preds = %cleanup10
; invoke core::ptr::drop_in_place<alloc::string::String>
  invoke void @"_ZN4core3ptr42drop_in_place$LT$alloc..string..String$GT$17h5b76beccd88832b8E"(ptr align 8 %_18) #14
          to label %bb28 unwind label %terminate

cleanup10:                                        ; preds = %bb15
  %68 = landingpad { ptr, i32 }
          cleanup
  %69 = extractvalue { ptr, i32 } %68, 0
  %70 = extractvalue { ptr, i32 } %68, 1
  %71 = getelementptr inbounds { ptr, i32 }, ptr %0, i32 0, i32 0
  store ptr %69, ptr %71, align 8
  %72 = getelementptr inbounds { ptr, i32 }, ptr %0, i32 0, i32 1
  store i32 %70, ptr %72, align 8
  br label %bb27

bb16:                                             ; preds = %bb15
  call void @llvm.memcpy.p0.p0.i64(ptr align 8 %_user4, ptr align 8 %_19, i64 24, i1 false)
  %73 = getelementptr inbounds %User, ptr %_user4, i32 0, i32 1
  call void @llvm.memcpy.p0.p0.i64(ptr align 8 %73, ptr align 8 %_18, i64 24, i1 false)
  %74 = getelementptr inbounds %User, ptr %user3, i32 0, i32 2
  %75 = load i64, ptr %74, align 8, !noundef !5
  %76 = getelementptr inbounds %User, ptr %_user4, i32 0, i32 2
  store i64 %75, ptr %76, align 8
  %77 = getelementptr inbounds %User, ptr %user3, i32 0, i32 3
  %78 = load i8, ptr %77, align 8, !range !8, !noundef !5
  %79 = trunc i8 %78 to i1
  %80 = getelementptr inbounds %User, ptr %_user4, i32 0, i32 3
  %81 = zext i1 %79 to i8
  store i8 %81, ptr %80, align 8
; invoke <alloc::string::String as core::convert::From<&str>>::from
  invoke void @"_ZN76_$LT$alloc..string..String$u20$as$u20$core..convert..From$LT$$RF$str$GT$$GT$4from17ha8f54335dd99c1a1E"(ptr sret(%"alloc::string::String") align 8 %_21, ptr align 1 @alloc_9b192103b087c498b823dc2c756be167, i64 19)
          to label %bb17 unwind label %cleanup11

bb26:                                             ; preds = %bb25, %cleanup11
; invoke core::ptr::drop_in_place<struct_usage::User>
  invoke void @"_ZN4core3ptr39drop_in_place$LT$struct_usage..User$GT$17h794f9338fba1adfcE"(ptr align 8 %_user4) #14
          to label %bb28 unwind label %terminate

cleanup11:                                        ; preds = %bb18, %bb16
  %82 = landingpad { ptr, i32 }
          cleanup
  %83 = extractvalue { ptr, i32 } %82, 0
  %84 = extractvalue { ptr, i32 } %82, 1
  %85 = getelementptr inbounds { ptr, i32 }, ptr %0, i32 0, i32 0
  store ptr %83, ptr %85, align 8
  %86 = getelementptr inbounds { ptr, i32 }, ptr %0, i32 0, i32 1
  store i32 %84, ptr %86, align 8
  br label %bb26

bb17:                                             ; preds = %bb16
; invoke <alloc::string::String as core::convert::From<&str>>::from
  invoke void @"_ZN76_$LT$alloc..string..String$u20$as$u20$core..convert..From$LT$$RF$str$GT$$GT$4from17ha8f54335dd99c1a1E"(ptr sret(%"alloc::string::String") align 8 %_22, ptr align 1 @alloc_53e59ec1a43a7e31ac99ea0b5b0b1728, i64 18)
          to label %bb18 unwind label %cleanup12

bb25:                                             ; preds = %cleanup12
; invoke core::ptr::drop_in_place<alloc::string::String>
  invoke void @"_ZN4core3ptr42drop_in_place$LT$alloc..string..String$GT$17h5b76beccd88832b8E"(ptr align 8 %_21) #14
          to label %bb26 unwind label %terminate

cleanup12:                                        ; preds = %bb17
  %87 = landingpad { ptr, i32 }
          cleanup
  %88 = extractvalue { ptr, i32 } %87, 0
  %89 = extractvalue { ptr, i32 } %87, 1
  %90 = getelementptr inbounds { ptr, i32 }, ptr %0, i32 0, i32 0
  store ptr %88, ptr %90, align 8
  %91 = getelementptr inbounds { ptr, i32 }, ptr %0, i32 0, i32 1
  store i32 %89, ptr %91, align 8
  br label %bb25

bb18:                                             ; preds = %bb17
  %92 = getelementptr inbounds %User, ptr %user1, i32 0, i32 3
  %93 = load i8, ptr %92, align 8, !range !8, !noundef !5
  %_23 = trunc i8 %93 to i1
  %94 = getelementptr inbounds %User, ptr %user1, i32 0, i32 2
  %_24 = load i64, ptr %94, align 8, !noundef !5
  call void @llvm.memcpy.p0.p0.i64(ptr align 8 %_user5, ptr align 8 %_22, i64 24, i1 false)
  %95 = getelementptr inbounds %User, ptr %_user5, i32 0, i32 1
  call void @llvm.memcpy.p0.p0.i64(ptr align 8 %95, ptr align 8 %_21, i64 24, i1 false)
  %96 = getelementptr inbounds %User, ptr %_user5, i32 0, i32 2
  store i64 %_24, ptr %96, align 8
  %97 = getelementptr inbounds %User, ptr %_user5, i32 0, i32 3
  %98 = zext i1 %_23 to i8
  store i8 %98, ptr %97, align 8
; invoke core::ptr::drop_in_place<struct_usage::User>
  invoke void @"_ZN4core3ptr39drop_in_place$LT$struct_usage..User$GT$17h794f9338fba1adfcE"(ptr align 8 %_user5)
          to label %bb19 unwind label %cleanup11

bb19:                                             ; preds = %bb18
; invoke core::ptr::drop_in_place<struct_usage::User>
  invoke void @"_ZN4core3ptr39drop_in_place$LT$struct_usage..User$GT$17h794f9338fba1adfcE"(ptr align 8 %_user4)
          to label %bb20 unwind label %cleanup9

bb20:                                             ; preds = %bb19
; invoke core::ptr::drop_in_place<struct_usage::User>
  invoke void @"_ZN4core3ptr39drop_in_place$LT$struct_usage..User$GT$17h794f9338fba1adfcE"(ptr align 8 %user3)
          to label %bb21 unwind label %cleanup7

bb21:                                             ; preds = %bb20
; invoke core::ptr::drop_in_place<struct_usage::User>
  invoke void @"_ZN4core3ptr39drop_in_place$LT$struct_usage..User$GT$17h794f9338fba1adfcE"(ptr align 8 %_user2)
          to label %bb22 unwind label %cleanup6

bb22:                                             ; preds = %bb21
  store i8 0, ptr %_25, align 1
; invoke core::ptr::drop_in_place<struct_usage::User>
  invoke void @"_ZN4core3ptr39drop_in_place$LT$struct_usage..User$GT$17h794f9338fba1adfcE"(ptr align 8 %user1)
          to label %bb23 unwind label %cleanup1

bb23:                                             ; preds = %bb22
; call core::ptr::drop_in_place<struct_usage::User>
  call void @"_ZN4core3ptr39drop_in_place$LT$struct_usage..User$GT$17h794f9338fba1adfcE"(ptr align 8 %_user0)
  ret void

terminate:                                        ; preds = %bb34, %bb33, %bb32, %bb31, %bb36, %bb30, %bb29, %bb28, %bb27, %bb26, %bb25
  %99 = landingpad { ptr, i32 }
          filter [0 x ptr] zeroinitializer
  %100 = extractvalue { ptr, i32 } %99, 0
  %101 = extractvalue { ptr, i32 } %99, 1
; call core::panicking::panic_in_cleanup
  call void @_ZN4core9panicking16panic_in_cleanup17h0c7fb62f204ce488E() #15
  unreachable

bb36:                                             ; preds = %bb37
; invoke core::ptr::drop_in_place<alloc::string::String>
  invoke void @"_ZN4core3ptr42drop_in_place$LT$alloc..string..String$GT$17h5b76beccd88832b8E"(ptr align 8 %email) #14
          to label %bb31 unwind label %terminate

bb35:                                             ; preds = %bb34, %bb33
  %102 = load ptr, ptr %0, align 8, !noundef !5
  %103 = getelementptr inbounds { ptr, i32 }, ptr %0, i32 0, i32 1
  %104 = load i32, ptr %103, align 8, !noundef !5
  %105 = insertvalue { ptr, i32 } poison, ptr %102, 0
  %106 = insertvalue { ptr, i32 } %105, i32 %104, 1
  resume { ptr, i32 } %106
}

; std::rt::lang_start_internal
; Function Attrs: nonlazybind uwtable
declare i64 @_ZN3std2rt19lang_start_internal17h3995343b9d112556E(ptr align 1, ptr align 8, i64, ptr, i8) unnamed_addr #1

; Function Attrs: nonlazybind uwtable
declare i32 @rust_eh_personality(i32, i32, i64, ptr, ptr) unnamed_addr #1

; core::panicking::panic_in_cleanup
; Function Attrs: cold noinline noreturn nounwind nonlazybind uwtable
declare void @_ZN4core9panicking16panic_in_cleanup17h0c7fb62f204ce488E() unnamed_addr #3

; Function Attrs: nocallback nofree nosync nounwind willreturn memory(inaccessiblemem: readwrite)
declare void @llvm.assume(i1 noundef) #4

; Function Attrs: nocallback nofree nosync nounwind willreturn memory(none)
declare i1 @llvm.expect.i1(i1, i1) #5

; core::panicking::panic
; Function Attrs: cold noinline noreturn nonlazybind uwtable
declare void @_ZN4core9panicking5panic17h242592162912b9b5E(ptr align 1, i64, ptr align 8) unnamed_addr #6

; Function Attrs: nocallback nofree nounwind willreturn memory(argmem: readwrite)
declare void @llvm.memcpy.p0.p0.i64(ptr noalias nocapture writeonly, ptr noalias nocapture readonly, i64, i1 immarg) #7

; Function Attrs: nounwind nonlazybind allockind("alloc,uninitialized,aligned") allocsize(0) uwtable
declare noalias ptr @__rust_alloc(i64, i64 allocalign) unnamed_addr #8

; Function Attrs: nounwind nonlazybind allockind("alloc,zeroed,aligned") allocsize(0) uwtable
declare noalias ptr @__rust_alloc_zeroed(i64, i64 allocalign) unnamed_addr #9

; alloc::alloc::handle_alloc_error
; Function Attrs: cold noreturn nonlazybind uwtable
declare void @_ZN5alloc5alloc18handle_alloc_error17h9d90dd3d9d02fb33E(i64, i64) unnamed_addr #10

; alloc::raw_vec::capacity_overflow
; Function Attrs: noreturn nonlazybind uwtable
declare void @_ZN5alloc7raw_vec17capacity_overflow17h65984c0dd46b1a32E() unnamed_addr #11

; Function Attrs: nounwind nonlazybind allockind("free") uwtable
declare void @__rust_dealloc(ptr allocptr, i64, i64) unnamed_addr #12

; Function Attrs: nonlazybind
define i32 @main(i32 %0, ptr %1) unnamed_addr #13 {
top:
  %2 = sext i32 %0 to i64
; call std::rt::lang_start
  %3 = call i64 @_ZN3std2rt10lang_start17h669152d41b95aad8E(ptr @_ZN12struct_usage4main17h81d9e66f0c89d1b8E, i64 %2, ptr %1, i8 0)
  %4 = trunc i64 %3 to i32
  ret i32 %4
}

attributes #0 = { noinline nonlazybind uwtable "probe-stack"="inline-asm" "target-cpu"="x86-64" }
attributes #1 = { nonlazybind uwtable "probe-stack"="inline-asm" "target-cpu"="x86-64" }
attributes #2 = { inlinehint nonlazybind uwtable "probe-stack"="inline-asm" "target-cpu"="x86-64" }
attributes #3 = { cold noinline noreturn nounwind nonlazybind uwtable "probe-stack"="inline-asm" "target-cpu"="x86-64" }
attributes #4 = { nocallback nofree nosync nounwind willreturn memory(inaccessiblemem: readwrite) }
attributes #5 = { nocallback nofree nosync nounwind willreturn memory(none) }
attributes #6 = { cold noinline noreturn nonlazybind uwtable "probe-stack"="inline-asm" "target-cpu"="x86-64" }
attributes #7 = { nocallback nofree nounwind willreturn memory(argmem: readwrite) }
attributes #8 = { nounwind nonlazybind allockind("alloc,uninitialized,aligned") allocsize(0) uwtable "alloc-family"="__rust_alloc" "probe-stack"="inline-asm" "target-cpu"="x86-64" }
attributes #9 = { nounwind nonlazybind allockind("alloc,zeroed,aligned") allocsize(0) uwtable "alloc-family"="__rust_alloc" "probe-stack"="inline-asm" "target-cpu"="x86-64" }
attributes #10 = { cold noreturn nonlazybind uwtable "probe-stack"="inline-asm" "target-cpu"="x86-64" }
attributes #11 = { noreturn nonlazybind uwtable "probe-stack"="inline-asm" "target-cpu"="x86-64" }
attributes #12 = { nounwind nonlazybind allockind("free") uwtable "alloc-family"="__rust_alloc" "probe-stack"="inline-asm" "target-cpu"="x86-64" }
attributes #13 = { nonlazybind "target-cpu"="x86-64" }
attributes #14 = { noinline }
attributes #15 = { noinline noreturn nounwind }
attributes #16 = { noreturn }
attributes #17 = { nounwind }

!llvm.module.flags = !{!0, !1, !2}
!llvm.ident = !{!3}

!0 = !{i32 8, !"PIC Level", i32 2}
!1 = !{i32 7, !"PIE Level", i32 2}
!2 = !{i32 2, !"RtLibUseGOT", i32 1}
!3 = !{!"rustc version 1.74.0-nightly (1e746d774 2023-09-07)"}
!4 = !{i32 2384574}
!5 = !{}
!6 = !{i64 1, i64 -9223372036854775807}
!7 = !{i64 0, i64 -9223372036854775807}
!8 = !{i8 0, i8 2}
