; ModuleID = 'generics.65dd73d8053352e7-cgu.0'
source_filename = "generics.65dd73d8053352e7-cgu.0"
target datalayout = "e-m:e-p270:32:32-p271:32:32-p272:64:64-i64:64-f80:128-n8:16:32:64-S128"
target triple = "x86_64-unknown-linux-gnu"

@vtable.0 = private unnamed_addr constant <{ ptr, [16 x i8], ptr, ptr, ptr }> <{ ptr @"_ZN4core3ptr85drop_in_place$LT$std..rt..lang_start$LT$$LP$$RP$$GT$..$u7b$$u7b$closure$u7d$$u7d$$GT$17h89e44d37bf28dae6E", [16 x i8] c"\08\00\00\00\00\00\00\00\08\00\00\00\00\00\00\00", ptr @"_ZN4core3ops8function6FnOnce40call_once$u7b$$u7b$vtable.shim$u7d$$u7d$17h0fae659ca13e9652E", ptr @"_ZN3std2rt10lang_start28_$u7b$$u7b$closure$u7d$$u7d$17hf22eebf363aab782E", ptr @"_ZN3std2rt10lang_start28_$u7b$$u7b$closure$u7d$$u7d$17hf22eebf363aab782E" }>, align 8

; std::sys_common::backtrace::__rust_begin_short_backtrace
; Function Attrs: noinline nonlazybind uwtable
define internal void @_ZN3std10sys_common9backtrace28__rust_begin_short_backtrace17hf11585b028f454a7E(ptr %f) unnamed_addr #0 {
start:
; call core::ops::function::FnOnce::call_once
  call void @_ZN4core3ops8function6FnOnce9call_once17h9cf878181704169cE(ptr %f)
  call void asm sideeffect "", "~{memory}"(), !srcloc !4
  ret void
}

; std::rt::lang_start
; Function Attrs: nonlazybind uwtable
define hidden i64 @_ZN3std2rt10lang_start17hf65cf874aa71209cE(ptr %main, i64 %argc, ptr %argv, i8 %sigpipe) unnamed_addr #1 {
start:
  %_8 = alloca ptr, align 8
  %_5 = alloca i64, align 8
  store ptr %main, ptr %_8, align 8
; call std::rt::lang_start_internal
  %0 = call i64 @_ZN3std2rt19lang_start_internal17h3995343b9d112556E(ptr align 1 %_8, ptr align 8 @vtable.0, i64 %argc, ptr %argv, i8 %sigpipe)
  store i64 %0, ptr %_5, align 8
  %v = load i64, ptr %_5, align 8, !noundef !5
  ret i64 %v
}

; std::rt::lang_start::{{closure}}
; Function Attrs: inlinehint nonlazybind uwtable
define internal i32 @"_ZN3std2rt10lang_start28_$u7b$$u7b$closure$u7d$$u7d$17hf22eebf363aab782E"(ptr align 8 %_1) unnamed_addr #2 {
start:
  %_4 = load ptr, ptr %_1, align 8, !nonnull !5, !noundef !5
; call std::sys_common::backtrace::__rust_begin_short_backtrace
  call void @_ZN3std10sys_common9backtrace28__rust_begin_short_backtrace17hf11585b028f454a7E(ptr %_4)
; call <() as std::process::Termination>::report
  %self = call i8 @"_ZN54_$LT$$LP$$RP$$u20$as$u20$std..process..Termination$GT$6report17h22470024abac1f02E"()
  %_0 = zext i8 %self to i32
  ret i32 %_0
}

; core::ops::function::FnOnce::call_once{{vtable.shim}}
; Function Attrs: inlinehint nonlazybind uwtable
define internal i32 @"_ZN4core3ops8function6FnOnce40call_once$u7b$$u7b$vtable.shim$u7d$$u7d$17h0fae659ca13e9652E"(ptr %_1) unnamed_addr #2 {
start:
  %_2 = alloca {}, align 1
  %0 = load ptr, ptr %_1, align 8, !nonnull !5, !noundef !5
; call core::ops::function::FnOnce::call_once
  %_0 = call i32 @_ZN4core3ops8function6FnOnce9call_once17ha0090912d069ad72E(ptr %0)
  ret i32 %_0
}

; core::ops::function::FnOnce::call_once
; Function Attrs: inlinehint nonlazybind uwtable
define internal void @_ZN4core3ops8function6FnOnce9call_once17h9cf878181704169cE(ptr %_1) unnamed_addr #2 {
start:
  %_2 = alloca {}, align 1
  call void %_1()
  ret void
}

; core::ops::function::FnOnce::call_once
; Function Attrs: inlinehint nonlazybind uwtable
define internal i32 @_ZN4core3ops8function6FnOnce9call_once17ha0090912d069ad72E(ptr %0) unnamed_addr #2 personality ptr @rust_eh_personality {
start:
  %1 = alloca { ptr, i32 }, align 8
  %_2 = alloca {}, align 1
  %_1 = alloca ptr, align 8
  store ptr %0, ptr %_1, align 8
; invoke std::rt::lang_start::{{closure}}
  %_0 = invoke i32 @"_ZN3std2rt10lang_start28_$u7b$$u7b$closure$u7d$$u7d$17hf22eebf363aab782E"(ptr align 8 %_1)
          to label %bb1 unwind label %cleanup

bb3:                                              ; preds = %cleanup
  %2 = load ptr, ptr %1, align 8, !noundef !5
  %3 = getelementptr inbounds { ptr, i32 }, ptr %1, i32 0, i32 1
  %4 = load i32, ptr %3, align 8, !noundef !5
  %5 = insertvalue { ptr, i32 } poison, ptr %2, 0
  %6 = insertvalue { ptr, i32 } %5, i32 %4, 1
  resume { ptr, i32 } %6

cleanup:                                          ; preds = %start
  %7 = landingpad { ptr, i32 }
          cleanup
  %8 = extractvalue { ptr, i32 } %7, 0
  %9 = extractvalue { ptr, i32 } %7, 1
  %10 = getelementptr inbounds { ptr, i32 }, ptr %1, i32 0, i32 0
  store ptr %8, ptr %10, align 8
  %11 = getelementptr inbounds { ptr, i32 }, ptr %1, i32 0, i32 1
  store i32 %9, ptr %11, align 8
  br label %bb3

bb1:                                              ; preds = %start
  ret i32 %_0
}

; core::ptr::drop_in_place<std::rt::lang_start<()>::{{closure}}>
; Function Attrs: inlinehint nonlazybind uwtable
define internal void @"_ZN4core3ptr85drop_in_place$LT$std..rt..lang_start$LT$$LP$$RP$$GT$..$u7b$$u7b$closure$u7d$$u7d$$GT$17h89e44d37bf28dae6E"(ptr align 8 %_1) unnamed_addr #2 {
start:
  ret void
}

; <() as std::process::Termination>::report
; Function Attrs: inlinehint nonlazybind uwtable
define internal i8 @"_ZN54_$LT$$LP$$RP$$u20$as$u20$std..process..Termination$GT$6report17h22470024abac1f02E"() unnamed_addr #2 {
start:
  ret i8 0
}

; generics::reg_fn
; Function Attrs: nonlazybind uwtable
define internal void @_ZN8generics6reg_fn17h2ef7091144feca06E() unnamed_addr #1 {
start:
  ret void
}

; generics::gen_spec_t
; Function Attrs: nonlazybind uwtable
define internal void @_ZN8generics10gen_spec_t17h958408901fc995abE() unnamed_addr #1 {
start:
  ret void
}

; generics::gen_spec_i32
; Function Attrs: nonlazybind uwtable
define internal void @_ZN8generics12gen_spec_i3217hbb387b9b1ba8e7d8E(i32 %_s) unnamed_addr #1 {
start:
  ret void
}

; generics::generic
; Function Attrs: nonlazybind uwtable
define internal void @_ZN8generics7generic17h378f291376aec33fE(i32 %_s) unnamed_addr #1 {
start:
  ret void
}

; generics::main
; Function Attrs: nonlazybind uwtable
define internal void @_ZN8generics4main17h5587958260d6e589E() unnamed_addr #1 {
start:
  %_8 = alloca i32, align 4
  %_6 = alloca i32, align 4
  %_4 = alloca i32, align 4
; call generics::reg_fn
  call void @_ZN8generics6reg_fn17h2ef7091144feca06E()
; call generics::gen_spec_t
  call void @_ZN8generics10gen_spec_t17h958408901fc995abE()
  store i32 6, ptr %_4, align 4
  %0 = load i32, ptr %_4, align 4, !noundef !5
; call generics::gen_spec_i32
  call void @_ZN8generics12gen_spec_i3217hbb387b9b1ba8e7d8E(i32 %0)
  store i32 97, ptr %_6, align 4
  %1 = load i32, ptr %_6, align 4, !range !6, !noundef !5
; call generics::generic
  call void @_ZN8generics7generic17h378f291376aec33fE(i32 %1)
  store i32 99, ptr %_8, align 4
  %2 = load i32, ptr %_8, align 4, !range !6, !noundef !5
; call generics::generic
  call void @_ZN8generics7generic17h378f291376aec33fE(i32 %2)
  ret void
}

; std::rt::lang_start_internal
; Function Attrs: nonlazybind uwtable
declare i64 @_ZN3std2rt19lang_start_internal17h3995343b9d112556E(ptr align 1, ptr align 8, i64, ptr, i8) unnamed_addr #1

; Function Attrs: nonlazybind uwtable
declare i32 @rust_eh_personality(i32, i32, i64, ptr, ptr) unnamed_addr #1

; Function Attrs: nonlazybind
define i32 @main(i32 %0, ptr %1) unnamed_addr #3 {
top:
  %2 = sext i32 %0 to i64
; call std::rt::lang_start
  %3 = call i64 @_ZN3std2rt10lang_start17hf65cf874aa71209cE(ptr @_ZN8generics4main17h5587958260d6e589E, i64 %2, ptr %1, i8 0)
  %4 = trunc i64 %3 to i32
  ret i32 %4
}

attributes #0 = { noinline nonlazybind uwtable "probe-stack"="inline-asm" "target-cpu"="x86-64" }
attributes #1 = { nonlazybind uwtable "probe-stack"="inline-asm" "target-cpu"="x86-64" }
attributes #2 = { inlinehint nonlazybind uwtable "probe-stack"="inline-asm" "target-cpu"="x86-64" }
attributes #3 = { nonlazybind "target-cpu"="x86-64" }

!llvm.module.flags = !{!0, !1, !2}
!llvm.ident = !{!3}

!0 = !{i32 8, !"PIC Level", i32 2}
!1 = !{i32 7, !"PIE Level", i32 2}
!2 = !{i32 2, !"RtLibUseGOT", i32 1}
!3 = !{!"rustc version 1.74.0-nightly (1e746d774 2023-09-07)"}
!4 = !{i32 1116489}
!5 = !{}
!6 = !{i32 0, i32 1114112}
