; ModuleID = 'loop.2c179f076f048bf6-cgu.0'
source_filename = "loop.2c179f076f048bf6-cgu.0"
target datalayout = "e-m:e-p270:32:32-p271:32:32-p272:64:64-i64:64-f80:128-n8:16:32:64-S128"
target triple = "x86_64-unknown-linux-gnu"

%"core::fmt::Arguments<'_>" = type { { ptr, i64 }, { ptr, i64 }, { ptr, i64 } }

@vtable.0 = private unnamed_addr constant <{ ptr, [16 x i8], ptr, ptr, ptr }> <{ ptr @"_ZN4core3ptr85drop_in_place$LT$std..rt..lang_start$LT$$LP$$RP$$GT$..$u7b$$u7b$closure$u7d$$u7d$$GT$17hb97cd5c5e4ec7714E", [16 x i8] c"\08\00\00\00\00\00\00\00\08\00\00\00\00\00\00\00", ptr @"_ZN4core3ops8function6FnOnce40call_once$u7b$$u7b$vtable.shim$u7d$$u7d$17h4387867476b092dbE", ptr @"_ZN3std2rt10lang_start28_$u7b$$u7b$closure$u7d$$u7d$17h748aafc212e90412E", ptr @"_ZN3std2rt10lang_start28_$u7b$$u7b$closure$u7d$$u7d$17h748aafc212e90412E" }>, align 8
@alloc_513570631223a12912d85da2bec3b15a = private unnamed_addr constant <{}> zeroinitializer, align 8
@alloc_91c7fa63c3cfeaa3c795652d5cf060e4 = private unnamed_addr constant <{ [12 x i8] }> <{ [12 x i8] c"invalid args" }>, align 1
@alloc_560206a49c61adca6f3f0639a12632eb = private unnamed_addr constant <{ ptr, [8 x i8] }> <{ ptr @alloc_91c7fa63c3cfeaa3c795652d5cf060e4, [8 x i8] c"\0C\00\00\00\00\00\00\00" }>, align 8
@alloc_1e0228a93ca3165ad44cd64ff86e557a = private unnamed_addr constant <{ [75 x i8] }> <{ [75 x i8] c"/rustc/1e746d7741d44551e9378daf13b8797322aa0b74/library/core/src/fmt/mod.rs" }>, align 1
@alloc_107a2ee16974a68bbe676ea4e96d3003 = private unnamed_addr constant <{ ptr, [16 x i8] }> <{ ptr @alloc_1e0228a93ca3165ad44cd64ff86e557a, [16 x i8] c"K\00\00\00\00\00\00\00+\01\00\00\0D\00\00\00" }>, align 8
@alloc_2e89b1277cf865036249fb1eb8e0f2a6 = private unnamed_addr constant <{ [21 x i8] }> <{ [21 x i8] c"This will never stop\0A" }>, align 1
@alloc_0abc4026a8f6e5a4d4b86c83621c4e00 = private unnamed_addr constant <{ ptr, [8 x i8] }> <{ ptr @alloc_2e89b1277cf865036249fb1eb8e0f2a6, [8 x i8] c"\15\00\00\00\00\00\00\00" }>, align 8
@alloc_0b8656e157b577d47f5614fafb08027e = private unnamed_addr constant <{ [7 x i8] }> <{ [7 x i8] c"loop.rs" }>, align 1
@alloc_ec781b789d18c34736046843684ed16f = private unnamed_addr constant <{ ptr, [16 x i8] }> <{ ptr @alloc_0b8656e157b577d47f5614fafb08027e, [16 x i8] c"\07\00\00\00\00\00\00\00\05\00\00\00\09\00\00\00" }>, align 8
@str.1 = internal constant [28 x i8] c"attempt to add with overflow"

; std::sys_common::backtrace::__rust_begin_short_backtrace
; Function Attrs: noinline nonlazybind uwtable
define internal void @_ZN3std10sys_common9backtrace28__rust_begin_short_backtrace17ha5cb37a716cb5fbdE(ptr %f) unnamed_addr #0 {
start:
; call core::ops::function::FnOnce::call_once
  call void @_ZN4core3ops8function6FnOnce9call_once17h825b0310db484ed0E(ptr %f)
  call void asm sideeffect "", "~{memory}"(), !srcloc !4
  ret void
}

; std::rt::lang_start
; Function Attrs: nonlazybind uwtable
define hidden i64 @_ZN3std2rt10lang_start17h73fc6073941d7937E(ptr %main, i64 %argc, ptr %argv, i8 %sigpipe) unnamed_addr #1 {
start:
  %_8 = alloca ptr, align 8
  %_5 = alloca i64, align 8
  store ptr %main, ptr %_8, align 8
; call std::rt::lang_start_internal
  %0 = call i64 @_ZN3std2rt19lang_start_internal17h3995343b9d112556E(ptr align 1 %_8, ptr align 8 @vtable.0, i64 %argc, ptr %argv, i8 %sigpipe)
  store i64 %0, ptr %_5, align 8
  %v = load i64, ptr %_5, align 8, !noundef !5
  ret i64 %v
}

; std::rt::lang_start::{{closure}}
; Function Attrs: inlinehint nonlazybind uwtable
define internal i32 @"_ZN3std2rt10lang_start28_$u7b$$u7b$closure$u7d$$u7d$17h748aafc212e90412E"(ptr align 8 %_1) unnamed_addr #2 {
start:
  %_4 = load ptr, ptr %_1, align 8, !nonnull !5, !noundef !5
; call std::sys_common::backtrace::__rust_begin_short_backtrace
  call void @_ZN3std10sys_common9backtrace28__rust_begin_short_backtrace17ha5cb37a716cb5fbdE(ptr %_4)
; call <() as std::process::Termination>::report
  %self = call i8 @"_ZN54_$LT$$LP$$RP$$u20$as$u20$std..process..Termination$GT$6report17hfe8d0e30c2c9ed84E"()
  %_0 = zext i8 %self to i32
  ret i32 %_0
}

; core::fmt::Arguments::new_const
; Function Attrs: inlinehint nonlazybind uwtable
define internal void @_ZN4core3fmt9Arguments9new_const17h2afd14864b6a8cadE(ptr sret(%"core::fmt::Arguments<'_>") align 8 %_0, ptr align 8 %pieces.0, i64 %pieces.1) unnamed_addr #2 {
start:
  %_7 = alloca { ptr, i64 }, align 8
  %_5 = alloca %"core::fmt::Arguments<'_>", align 8
  %_2 = icmp ugt i64 %pieces.1, 1
  br i1 %_2, label %bb1, label %bb3

bb3:                                              ; preds = %start
  store ptr null, ptr %_7, align 8
  %0 = getelementptr inbounds { ptr, i64 }, ptr %_0, i32 0, i32 0
  store ptr %pieces.0, ptr %0, align 8
  %1 = getelementptr inbounds { ptr, i64 }, ptr %_0, i32 0, i32 1
  store i64 %pieces.1, ptr %1, align 8
  %2 = getelementptr inbounds { ptr, i64 }, ptr %_7, i32 0, i32 0
  %3 = load ptr, ptr %2, align 8, !align !6, !noundef !5
  %4 = getelementptr inbounds { ptr, i64 }, ptr %_7, i32 0, i32 1
  %5 = load i64, ptr %4, align 8
  %6 = getelementptr inbounds %"core::fmt::Arguments<'_>", ptr %_0, i32 0, i32 2
  %7 = getelementptr inbounds { ptr, i64 }, ptr %6, i32 0, i32 0
  store ptr %3, ptr %7, align 8
  %8 = getelementptr inbounds { ptr, i64 }, ptr %6, i32 0, i32 1
  store i64 %5, ptr %8, align 8
  %9 = getelementptr inbounds %"core::fmt::Arguments<'_>", ptr %_0, i32 0, i32 1
  %10 = getelementptr inbounds { ptr, i64 }, ptr %9, i32 0, i32 0
  store ptr @alloc_513570631223a12912d85da2bec3b15a, ptr %10, align 8
  %11 = getelementptr inbounds { ptr, i64 }, ptr %9, i32 0, i32 1
  store i64 0, ptr %11, align 8
  ret void

bb1:                                              ; preds = %start
; call core::fmt::Arguments::new_const
  call void @_ZN4core3fmt9Arguments9new_const17h2afd14864b6a8cadE(ptr sret(%"core::fmt::Arguments<'_>") align 8 %_5, ptr align 8 @alloc_560206a49c61adca6f3f0639a12632eb, i64 1)
; call core::panicking::panic_fmt
  call void @_ZN4core9panicking9panic_fmt17h16a1439d424583c1E(ptr align 8 %_5, ptr align 8 @alloc_107a2ee16974a68bbe676ea4e96d3003) #7
  unreachable
}

; core::ops::function::FnOnce::call_once{{vtable.shim}}
; Function Attrs: inlinehint nonlazybind uwtable
define internal i32 @"_ZN4core3ops8function6FnOnce40call_once$u7b$$u7b$vtable.shim$u7d$$u7d$17h4387867476b092dbE"(ptr %_1) unnamed_addr #2 {
start:
  %_2 = alloca {}, align 1
  %0 = load ptr, ptr %_1, align 8, !nonnull !5, !noundef !5
; call core::ops::function::FnOnce::call_once
  %_0 = call i32 @_ZN4core3ops8function6FnOnce9call_once17h336f95150d1d2407E(ptr %0)
  ret i32 %_0
}

; core::ops::function::FnOnce::call_once
; Function Attrs: inlinehint nonlazybind uwtable
define internal i32 @_ZN4core3ops8function6FnOnce9call_once17h336f95150d1d2407E(ptr %0) unnamed_addr #2 personality ptr @rust_eh_personality {
start:
  %1 = alloca { ptr, i32 }, align 8
  %_2 = alloca {}, align 1
  %_1 = alloca ptr, align 8
  store ptr %0, ptr %_1, align 8
; invoke std::rt::lang_start::{{closure}}
  %_0 = invoke i32 @"_ZN3std2rt10lang_start28_$u7b$$u7b$closure$u7d$$u7d$17h748aafc212e90412E"(ptr align 8 %_1)
          to label %bb1 unwind label %cleanup

bb3:                                              ; preds = %cleanup
  %2 = load ptr, ptr %1, align 8, !noundef !5
  %3 = getelementptr inbounds { ptr, i32 }, ptr %1, i32 0, i32 1
  %4 = load i32, ptr %3, align 8, !noundef !5
  %5 = insertvalue { ptr, i32 } poison, ptr %2, 0
  %6 = insertvalue { ptr, i32 } %5, i32 %4, 1
  resume { ptr, i32 } %6

cleanup:                                          ; preds = %start
  %7 = landingpad { ptr, i32 }
          cleanup
  %8 = extractvalue { ptr, i32 } %7, 0
  %9 = extractvalue { ptr, i32 } %7, 1
  %10 = getelementptr inbounds { ptr, i32 }, ptr %1, i32 0, i32 0
  store ptr %8, ptr %10, align 8
  %11 = getelementptr inbounds { ptr, i32 }, ptr %1, i32 0, i32 1
  store i32 %9, ptr %11, align 8
  br label %bb3

bb1:                                              ; preds = %start
  ret i32 %_0
}

; core::ops::function::FnOnce::call_once
; Function Attrs: inlinehint nonlazybind uwtable
define internal void @_ZN4core3ops8function6FnOnce9call_once17h825b0310db484ed0E(ptr %_1) unnamed_addr #2 {
start:
  %_2 = alloca {}, align 1
  call void %_1()
  ret void
}

; core::ptr::drop_in_place<std::rt::lang_start<()>::{{closure}}>
; Function Attrs: inlinehint nonlazybind uwtable
define internal void @"_ZN4core3ptr85drop_in_place$LT$std..rt..lang_start$LT$$LP$$RP$$GT$..$u7b$$u7b$closure$u7d$$u7d$$GT$17hb97cd5c5e4ec7714E"(ptr align 8 %_1) unnamed_addr #2 {
start:
  ret void
}

; <() as std::process::Termination>::report
; Function Attrs: inlinehint nonlazybind uwtable
define internal i8 @"_ZN54_$LT$$LP$$RP$$u20$as$u20$std..process..Termination$GT$6report17hfe8d0e30c2c9ed84E"() unnamed_addr #2 {
start:
  ret i8 0
}

; loop::main
; Function Attrs: nonlazybind uwtable
define internal void @_ZN4loop4main17h648833a4d7447079E() unnamed_addr #1 {
start:
  %_3 = alloca %"core::fmt::Arguments<'_>", align 8
  %c = alloca i32, align 4
  store i32 0, ptr %c, align 4
  br label %bb1

bb1:                                              ; preds = %bb4, %start
; call core::fmt::Arguments::new_const
  call void @_ZN4core3fmt9Arguments9new_const17h2afd14864b6a8cadE(ptr sret(%"core::fmt::Arguments<'_>") align 8 %_3, ptr align 8 @alloc_0abc4026a8f6e5a4d4b86c83621c4e00, i64 1)
; call std::io::stdio::_print
  call void @_ZN3std2io5stdio6_print17h611ff38a98ac9ea1E(ptr align 8 %_3)
  %0 = load i32, ptr %c, align 4, !noundef !5
  %1 = call { i32, i1 } @llvm.sadd.with.overflow.i32(i32 %0, i32 1)
  %_5.0 = extractvalue { i32, i1 } %1, 0
  %_5.1 = extractvalue { i32, i1 } %1, 1
  %2 = call i1 @llvm.expect.i1(i1 %_5.1, i1 false)
  br i1 %2, label %panic, label %bb4

bb4:                                              ; preds = %bb1
  store i32 %_5.0, ptr %c, align 4
  %_6 = load i32, ptr %c, align 4, !noundef !5
  %3 = icmp eq i32 %_6, 4
  br i1 %3, label %bb5, label %bb1

panic:                                            ; preds = %bb1
; call core::panicking::panic
  call void @_ZN4core9panicking5panic17h242592162912b9b5E(ptr align 1 @str.1, i64 28, ptr align 8 @alloc_ec781b789d18c34736046843684ed16f) #7
  unreachable

bb5:                                              ; preds = %bb4
  ret void
}

; std::rt::lang_start_internal
; Function Attrs: nonlazybind uwtable
declare i64 @_ZN3std2rt19lang_start_internal17h3995343b9d112556E(ptr align 1, ptr align 8, i64, ptr, i8) unnamed_addr #1

; core::panicking::panic_fmt
; Function Attrs: cold noinline noreturn nonlazybind uwtable
declare void @_ZN4core9panicking9panic_fmt17h16a1439d424583c1E(ptr align 8, ptr align 8) unnamed_addr #3

; Function Attrs: nonlazybind uwtable
declare i32 @rust_eh_personality(i32, i32, i64, ptr, ptr) unnamed_addr #1

; std::io::stdio::_print
; Function Attrs: nonlazybind uwtable
declare void @_ZN3std2io5stdio6_print17h611ff38a98ac9ea1E(ptr align 8) unnamed_addr #1

; Function Attrs: nocallback nofree nosync nounwind speculatable willreturn memory(none)
declare { i32, i1 } @llvm.sadd.with.overflow.i32(i32, i32) #4

; Function Attrs: nocallback nofree nosync nounwind willreturn memory(none)
declare i1 @llvm.expect.i1(i1, i1) #5

; core::panicking::panic
; Function Attrs: cold noinline noreturn nonlazybind uwtable
declare void @_ZN4core9panicking5panic17h242592162912b9b5E(ptr align 1, i64, ptr align 8) unnamed_addr #3

; Function Attrs: nonlazybind
define i32 @main(i32 %0, ptr %1) unnamed_addr #6 {
top:
  %2 = sext i32 %0 to i64
; call std::rt::lang_start
  %3 = call i64 @_ZN3std2rt10lang_start17h73fc6073941d7937E(ptr @_ZN4loop4main17h648833a4d7447079E, i64 %2, ptr %1, i8 0)
  %4 = trunc i64 %3 to i32
  ret i32 %4
}

attributes #0 = { noinline nonlazybind uwtable "probe-stack"="inline-asm" "target-cpu"="x86-64" }
attributes #1 = { nonlazybind uwtable "probe-stack"="inline-asm" "target-cpu"="x86-64" }
attributes #2 = { inlinehint nonlazybind uwtable "probe-stack"="inline-asm" "target-cpu"="x86-64" }
attributes #3 = { cold noinline noreturn nonlazybind uwtable "probe-stack"="inline-asm" "target-cpu"="x86-64" }
attributes #4 = { nocallback nofree nosync nounwind speculatable willreturn memory(none) }
attributes #5 = { nocallback nofree nosync nounwind willreturn memory(none) }
attributes #6 = { nonlazybind "target-cpu"="x86-64" }
attributes #7 = { noreturn }

!llvm.module.flags = !{!0, !1, !2}
!llvm.ident = !{!3}

!0 = !{i32 8, !"PIC Level", i32 2}
!1 = !{i32 7, !"PIE Level", i32 2}
!2 = !{i32 2, !"RtLibUseGOT", i32 1}
!3 = !{!"rustc version 1.74.0-nightly (1e746d774 2023-09-07)"}
!4 = !{i32 1507345}
!5 = !{}
!6 = !{i64 8}
